(dp1
S'output'
p2
S"<type 'exceptions.ValueError'> invalid literal for long() with base 10: 'amsnd'"
p3
sS'layer'
p4
S'/Users/mzimmerman/Documents/Shahar/CS183proj/web2py/applications/seq/controllers/default.py'
p5
sS'code'
p6
S'# -*- coding: utf-8 -*-\n# this file is released under public domain and you can use without limitations\n\n#########################################################################\n## This is a sample controller\n## - index is the default action of any application\n## - user is required for authentication and authorization\n## - download is for downloading files uploaded in the db (does streaming)\n## - api is an example of Hypermedia API support and access control\n#########################################################################\n\ndef index():\n   user = all_descriptors = None\n   header_text = "Latest sequences"\n   \n   """Set response menu"""\n   ctrl = \'index\'\n   authorized = False\n   if request.args(0) is not None:\n       ctrl = \'myindex\'\n       header_text = "My sequences"\n       if request.args(0) != \'None\':\n           p = db(db.descriptor_table.creating_user_id == request.args(0)).select()\n           for row in p:\n               if row.creating_user_id == auth.user_id:\n                   authorized = True  \n       else:\n           session.flash = T("You need to login!")\n\n   #response.menu = setResponseMenu(\'index\', True)\n   response.menu = setResponseMenu(ctrl, authorized)\n\n   # TODO: conditional authorization for viewing "My sequences"\n\n   """If passed arg (user id), shows only user\'s sequences (requires auth). Else, shows all sequences"""\n\n   # seqList = db(db.descriptor_to_user.user_id == auth.user_id).select(orderby=db.descriptor_table.seq_id)\n   user = auth.user\n   all_descriptors = db().select(db.descriptor_table.ALL, orderby=~db.descriptor_table.date_created) # For now, return all descriptors in the DB\n   query = None\n   if authorized: #only showing the sequences you created and that you are subscribed without the edit button\n       #all_descriptors = db(db.descriptor_table.creating_user_id == request.args(0)).select(db.descriptor_table.ALL)\n       query = db(db.descriptor_to_user.user_id == request.args(0)).select(db.descriptor_to_user.descriptor_id)\n       #query is to get all the sequence_id subscribed to the user_id\n       \n   if all_descriptors is None:\n      session.flash = T("You have no sequences!")\n   \n  \n   \n   return locals()\n\n@auth.requires_login()\ndef subscribe():\n    checking = db((db.descriptor_to_user.descriptor_id == request.args(0)) & (db.descriptor_to_user.user_id == auth.user_id)).select(db.descriptor_to_user.ALL)\n    if not checking:\n        update_descriptor_to_user(request.args(0))   \n    \n    \n    redirect(URL(\'default\', \'index\'))    \n\n@auth.requires_login()\ndef edit():\n    # authorize the user to edit\n    authorized = False\n    if request.args(0) is not None:\n       header_text = "You\'re not authorized to edit this sequence"\n       p = db(db.descriptor_table.id == request.args(0)).select()\n       for row in p:\n          if row.creating_user_id == auth.user_id:\n              authorized = True\n              header_text = row.sequence_name\n          else:\n              session.flash = T("You need to login!")\n    else:\n        redirect(URL(\'default\', \'index\'))\n\n    sequence_name = "Test sequence"\n\n    return locals()\n\ndef view():\n   """\n   Allows a user to visualize a particular sequence with it\'s annotations,\n   if any are present. Requires seq they want to see to be passed via URL,\n   as in sequencemagic/view/:descriptor_id\n   """\n   annotationList = seq = desc_name = desc_description = date_created = desc_author = None\n\n   desc_id = request.args(0) or None\n   if desc_id is None:\n       # no descriptor id given\n       return locals()\n\n   desc_row = db(db.descriptor_table.id == desc_id).select().first()\n   user_row = db(db.auth_user.id == desc_row.creating_user_id).select().first()\n\n   desc_author = user_row.first_name + " " + user_row.last_name\n   desc_name = desc_row.sequence_name\n   desc_description = desc_row.sequence_description\n   date_created = desc_row.date_created\n   seq_id = desc_row.seq_id\n\n   seq = db(db.sequences.id == seq_id).select().first().seq\n   if seq_id is None or seq is None:\n       # sequence doesn\'t exist\n       return locals()\n\n   # annotationList = db(db.annotations.descriptor_id == seqID).select().annotation_name\n   return locals()\n\n@auth.requires_login()\ndef upload():\n    """Set response menu"""\n    response.menu = setResponseMenu(\'upload\', True)\n\n    categories = ["fasta", "seq"]\n    form = SQLFORM.factory(\n        Field(\'name\', label=\'Sequence name\', required=True),\n        Field(\'seqs\', \'text\', requires=IS_NOT_EMPTY()),\n        Field(\'File Type\', requires=IS_IN_SET(categories)),\n        Field(\'sequence_file\', \'upload\'),\n        Field(\'description\', \'text\')\n    )\n\n    if form.process().accepted:\n        session.flash = T("Your form was accepted")\n        insert = insert_sequence(form)\n        descriptor_id = insert[\'desc_id\'] #<-- defined in the models\n        redirect(URL(\'default\', \'index\'))\n        \n     #redirect(URL(\'default\', \'view\', vars=dict(sequenceid=seq_id))\n        \n    else:\n        pass\n    return locals()\n\n\n"""This is just to test the tables and probably not how we should do this"""\n@auth.requires_login()\ndef upload_annotation():\n    """Set response menu"""\n    # response.menu = setResponseMenu(\'multiple\', True)\n\n    categories = []\n    for seq in db(db.descriptor_table).select(): #run through seq names\n        """if auth.user.first_name == seq.creating_user_id: #if they match curr users name append them for later\n            categories.append(seq.sequence_name)"""\n        categories.append(seq.sequence_name)\n\n    form = SQLFORM.factory(\n        Field(\'seq_name\', label=\' Select A Sequence to Annotate\', requires=IS_IN_SET(categories), required=True), # consists of only users own sequences\n        Field(\'annotation_name\', requires=IS_NOT_EMPTY()),\n        Field(\'annotation_position\', \'list:integer\'),\n        Field(\'description\', \'text\')\n    )\n\n    if form.process().accepted:\n        session.flash = T("Your form was accepted")\n        descriptor_id = insert_annotation(form) #<-- defined in the models\n        redirect(URL(\'default\', \'view\', args=[descriptor_id]))\n    else:\n        pass\n    return dict(form=form)\n\n"""Done just needs tweaking based on UI"""\ndef search():\n    search_seq = request.vars.search\n    search_pages = []\n    search_page_ids = []\n    if search_seq is not None:\n        all_pages = db().select(db.descriptor_table.ALL, orderby=db.descriptor_table.sequence_name)\n        for page in all_pages:\n            if (search_seq.lower() in repr(page.sequence_name).lower()):\n                search_page_ids.append(page.id)\n                search_pages.append(page)\n    return dict(search_seq=search_seq, search_pages=search_pages, search_page_ids=search_page_ids)\n\ndef user():\n    """\n    exposes:\n    http://..../[app]/default/user/login\n    http://..../[app]/default/user/logout\n    http://..../[app]/default/user/register\n    http://..../[app]/default/user/profile\n    http://..../[app]/default/user/retrieve_password\n    http://..../[app]/default/user/change_password\n    http://..../[app]/default/user/manage_users (requires membership in\n    use @auth.requires_login()\n        @auth.requires_membership(\'group name\')\n        @auth.requires_permission(\'read\',\'table name\',record_id)\n    to decorate functions that need access control\n    """\n    return dict(form=auth())\n\n\n@cache.action()\ndef download():\n    """\n    allows downloading of uploaded files\n    http://..../[app]/default/download/[filename]\n    """\n    return response.download(request, db)\n\n\ndef call():\n    """\n    exposes services. for example:\n    http://..../[app]/default/call/jsonrpc\n    decorate with @services.jsonrpc the functions to expose\n    supports xml, json, xmlrpc, jsonrpc, amfrpc, rss, csv\n    """\n    return service()\n\n\n@auth.requires_login() \ndef api():\n    """\n    this is example of API with access control\n    WEB2PY provides Hypermedia API (Collection+JSON) Experimental\n    """\n    from gluon.contrib.hypermedia import Collection\n    rules = {\n        \'<tablename>\': {\'GET\':{},\'POST\':{},\'PUT\':{},\'DELETE\':{}},\n        }\n    return Collection(db).process(request,response,rules)\n\nresponse._vars=response._caller(edit)\n'
p7
sS'snapshot'
p8
(dp9
sS'traceback'
p10
S'Traceback (most recent call last):\n  File "/Users/mzimmerman/Documents/Shahar/CS183proj/web2py/gluon/restricted.py", line 224, in restricted\n    exec ccode in environment\n  File "/Users/mzimmerman/Documents/Shahar/CS183proj/web2py/applications/seq/controllers/default.py", line 228, in <module>\n  File "/Users/mzimmerman/Documents/Shahar/CS183proj/web2py/gluon/globals.py", line 392, in <lambda>\n    self._caller = lambda f: f()\n  File "/Users/mzimmerman/Documents/Shahar/CS183proj/web2py/gluon/tools.py", line 3439, in f\n    return action(*a, **b)\n  File "/Users/mzimmerman/Documents/Shahar/CS183proj/web2py/applications/seq/controllers/default.py", line 68, in edit\n    p = db(db.descriptor_table.id == request.args(0)).select()\n  File "/Users/mzimmerman/Documents/Shahar/CS183proj/web2py/gluon/dal.py", line 10749, in select\n    return adapter.select(self.query, fields, attributes)\n  File "/Users/mzimmerman/Documents/Shahar/CS183proj/web2py/gluon/dal.py", line 2472, in select\n    return super(SQLiteAdapter, self).select(query, fields, attributes)\n  File "/Users/mzimmerman/Documents/Shahar/CS183proj/web2py/gluon/dal.py", line 1868, in select\n    sql = self._select(query, fields, attributes)\n  File "/Users/mzimmerman/Documents/Shahar/CS183proj/web2py/gluon/dal.py", line 1767, in _select\n    sql_w = \' WHERE \' + self.expand(query) if query else \'\'\n  File "/Users/mzimmerman/Documents/Shahar/CS183proj/web2py/gluon/dal.py", line 1544, in expand\n    out = op(first, second, **optional_args)\n  File "/Users/mzimmerman/Documents/Shahar/CS183proj/web2py/gluon/dal.py", line 1440, in EQ\n    self.expand(second, first.type))\n  File "/Users/mzimmerman/Documents/Shahar/CS183proj/web2py/gluon/dal.py", line 1555, in expand\n    return str(self.represent(expression, field_type))\n  File "/Users/mzimmerman/Documents/Shahar/CS183proj/web2py/gluon/dal.py", line 2005, in represent\n    return str(long(obj))\nValueError: invalid literal for long() with base 10: \'amsnd\'\n'
p11
s.