(dp1
S'output'
p2
S"<type 'exceptions.TypeError'> datetime.datetime(2015, 3, 12, 21, 42, 7, 604876) is not JSON serializable"
p3
sS'layer'
p4
S'/Users/mzimmerman/Documents/Shahar/CS183proj/web2py/applications/seq/controllers/default.py'
p5
sS'code'
p6
S'# -*- coding: utf-8 -*-\n# this file is released under public domain and you can use without limitations\n\n#########################################################################\n## This is a sample controller\n## - index is the default action of any application\n## - user is required for authentication and authorization\n## - download is for downloading files uploaded in the db (does streaming)\n## - api is an example of Hypermedia API support and access control\n#########################################################################\n\nimport gluon.contrib.simplejson as json\n\ndef index():\n   user = all_descriptors = None\n   header_text = "Latest sequences"\n   search_seq = ""\n   \n   """Set response menu"""\n   ctrl = \'index\'\n   authorized = False\n   if request.args(0) is not None:\n       ctrl = \'myindex\'\n       header_text = "My sequences"\n       if request.args(0) != \'None\':\n           p = db(db.descriptor_table.creating_user_id == request.args(0)).select()\n           for row in p:\n               if row.creating_user_id == auth.user_id:\n                   authorized = True  \n       else:\n           session.flash = T("You need to login!")\n\n   #response.menu = setResponseMenu(\'index\', True)\n   response.menu = setResponseMenu(ctrl, authorized)\n\n   # TODO: conditional authorization for viewing "My sequences"\n\n   """If passed arg (user id), shows only user\'s sequences (requires auth). Else, shows all sequences"""\n\n   # seqList = db(db.descriptor_to_user.user_id == auth.user_id).select(orderby=db.descriptor_table.seq_id)\n   user = auth.user\n   all_descriptors = db().select(db.descriptor_table.ALL, orderby=~db.descriptor_table.date_created) # For now, return all descriptors in the DB\n   query = None\n   if authorized: #only showing the sequences you created and that you are subscribed without the edit button\n       #all_descriptors = db(db.descriptor_table.creating_user_id == request.args(0)).select(db.descriptor_table.ALL)\n       query = db(db.descriptor_to_user.user_id == request.args(0)).select(db.descriptor_to_user.descriptor_id)\n       #query is to get all the sequence_id subscribed to the user_id\n       \n   if all_descriptors is None:\n      session.flash = T("You have no sequences!")\n   \n  \n   \n   return locals()\n\n@auth.requires_login()\ndef subscribe():\n    checking = db((db.descriptor_to_user.descriptor_id == request.args(0)) & (db.descriptor_to_user.user_id == auth.user_id)).select(db.descriptor_to_user.ALL)\n    if not checking:\n        update_descriptor_to_user(request.args(0))   \n    redirect(URL(\'default\', \'index\'))\n\n@auth.requires_login()\ndef edit():\n    # authorize the user to edit\n    authorized = False\n    sequence_name = \'Unknown sequence\'\n    if request.args(0) is not None:\n       header_text = "You\'re not authorized to edit this sequence"\n       p = db(db.descriptor_table.id == request.args(0)).select().first()\n       if p.creating_user_id == auth.user_id:\n              authorized = True\n              header_text = sequence_name = p.sequence_name\n       else:\n              session.flash = T("You need to login!")\n    else:\n        redirect(URL(\'default\', \'index\'))\n\n    seq_row = file_url = None\n    if authorized:\n        seq_row = db(db.sequences.id == p.seq_id).select().first()\n        if seq_row is not None and seq_row.seq_file_type == \'FASTA\':\n            file_url = URL(\'static\', \'uploads\', args=[seq_row.seq_file_name], scheme=True, host=True)\n        else:\n            session.flash = T("Couldn\'t find a sequence for the given descriptor ID")\n\n    return locals()\n\ndef view():\n   """\n   Allows a user to visualize a particular sequence with it\'s annotations,\n   if any are present. Requires seq they want to see to be passed via URL,\n   as in sequencemagic/view/:descriptor_id\n   """\n   annotationList = sequence_row = seq = seq_type = desc_name = \\\n       desc_description = date_created = desc_author = list_of_suscriptors = \\\n       seq_length = annotation_list = None\n   \n   desc_id = request.args(0) or None\n   if desc_id is None:\n       # no descriptor id given\n       return locals()\n\n   desc_row = db(db.descriptor_table.id == desc_id).select().first()\n\n   if desc_row is None:\n       # descriptor doesn\'t exist\n       seq = \'Sequence not found for given descriptor ID\'\n       return locals()\n\n   user_row = db(db.auth_user.id == desc_row.creating_user_id).select().first()\n\n   desc_author = user_row.first_name + " " + user_row.last_name\n   desc_name = desc_row.sequence_name\n   desc_description = desc_row.sequence_description\n   date_created = desc_row.date_created\n   seq_id = desc_row.seq_id\n   \n   list_of_suscriptors = db((db.descriptor_to_user.descriptor_id == desc_id) & (db.descriptor_to_user.user_id == db.auth_user.id)).select(db.auth_user.first_name, db.auth_user.last_name, db.auth_user.email)\n   \n   sequence_row = db(db.sequences.id == seq_id).select().first()\n   if sequence_row.seq is not None:\n       seq = sequence_row.seq\n       seq_type = \'text\'\n   elif sequence_row.seq_file_name is not None:\n       seq = sequence_row.seq_file_name\n       seq_type = sequence_row.seq_file_type\n\n   if seq is None:\n       # sequence info is corrupted/missing\n       seq = \'Sequence info not found\'\n       return locals()\n\n\n   # authorize the user to edit\n   authorized = False\n   if seq is not None:\n      header_text = "You\'re not authorized to edit this sequence"\n      p = db(db.descriptor_table.id == desc_id).select().first()\n      if p.creating_user_id == auth.user_id:\n             authorized = True\n             header_text = sequence_name = p.sequence_name\n      else:\n             session.flash = T("You need to login!")\n   else:\n       return locals()\n\n   sequence_row = file_url = None\n   if authorized:\n       # get sequence length and annotation data\n       seq_length = len(seq.replace(" ", ""))\n       # annotation_list = db(db.annotation_to_descriptor.descriptor_id == desc_id).select().as_list()\n       annotation_list = [\n           {\n               \'annotation_name\' : \'Test single annotation\',\n               \'annotation_location\' : [20],\n               \'date_created\' : datetime.utcnow(),\n               \'annotation_description\' : \'A test annotation hard-coded in for now\',\n               \'annotation_sequence\' : \'ACTGACTGACTGACTGACTGACTGACTGACTGACTGACTGACTGACTG\'\n           },\n           {\n               \'annotation_name\' : \'Test multi annotation\',\n               \'annotation_location\' : [130, 200],\n               \'date_created\' : date_created,\n               \'annotation_description\' : \'A test annotation hard-coded in for now\',\n               \'annotation_sequence\' : \'ACTGACTGACTGACTGACTGACTGACTGACTGACTGACTGACTGACTG\'\n           }\n       ]\n       annotation_list = json.dumps(annotation_list)\n\n   return locals()\n\n   """suscriptions_of_user= db((db.descriptor_to_user.user_id==auth.user_id)&(db.descriptor_to_user.descriptor_id==db.descriptor_table.id)&(db.descriptor_table.seq_id == db.sequences.id)).select(db.descriptor_table.ALL)\n   {{if len(suscriptions_of_user) > 0:}}\n                <ul>Im suscribed to :\n                    {{for p_2 in suscriptions_of_user:}}\n                        <li>{{=p_2.sequence_name}}</li>\n\n                    {{pass}}\n                </ul>\n            {{pass}} THIS IS THE QUERY AND THE PART TO PUT DIRECTLY IN THE VIEW."""\n\n@auth.requires_login()\ndef upload():\n    """Set response menu"""\n    response.menu = setResponseMenu(\'upload\', True)\n\n    categories = ["FASTA", "Plain Sequence"]\n    file_active = True;\n    form = SQLFORM.factory(\n        Field(\'name\', label=\'Sequence name\', required=True),\n        Field(\'file_type\', label = "File Type", requires=IS_IN_SET(categories)),\n        Field(\'sequence_file\', \'upload\', uploadfolder=request.folder+\'/static/uploads\'),\n        Field(\'description\', \'text\')\n    )\n    #form.add_button(\'Enter Sequence Manually\', URL(\'upload\', args=[\'man\']))\n    \n\t#Manual Sequence Entry form\n    if request.args(0)==\'man\':\n        file_active = False;\n        form = SQLFORM.factory(\n            Field(\'name\', label = \'Sequence name\', required = True),\n            Field(\'seqs\', \'text\', requires=IS_NOT_EMPTY()),\n            Field(\'description\', \'text\')\n        )\n        #form.add_button(\'Enter Sequence File\', URL(\'upload\', args=[]))\n\n    if form.process().accepted:\n        session.flash = T("Your form was accepted")\n        if request.args(0)==\'man\':\n            insert = insert_man_sequence(form)\n            descriptor_id = insert[\'desc_id\'] #<-- defined in the models\n            redirect(URL(\'default\', \'index\'))\n     \telse: \n            insert = insert_file_sequence(form)\n            descriptor_id = insert[\'desc_id\'] #<-- defined in the models\n            redirect(URL(\'default\', \'index\'))\n     \n\t #redirect(URL(\'default\', \'view\', vars=dict(sequenceid=seq_id))\n    else:\n        pass\n    return locals()\n\n\n"""This is just to test the tables and probably not how we should do this"""\n@auth.requires_login()\ndef upload_annotation():\n    """Set response menu"""\n    # response.menu = setResponseMenu(\'multiple\', True)\n\n    categories = []\n    for seq in db(db.descriptor_table).select(): #run through seq names\n        """if auth.user.first_name == seq.creating_user_id: #if they match curr users name append them for later\n            categories.append(seq.sequence_name)"""\n        if (seq.creating_user_id == auth.user_id):\n            categories.append(seq.sequence_name)\n\n    form = SQLFORM.factory(\n        Field(\'seq_name\', label=\' Select A Sequence to Annotate\', requires=IS_IN_SET(categories), required=True), # consists of only users own sequences\n        Field(\'annotation_name\', requires=IS_NOT_EMPTY()),\n        Field(\'annotation_position\', \'list:integer\'),\n        Field(\'description\', \'text\')\n    )\n\n    if form.process().accepted:\n        session.flash = T("Your form was accepted")\n        descriptor_id = insert_annotation(form) #<-- defined in the models\n        redirect(URL(\'default\', \'view\', args=[descriptor_id]))\n    else:\n        pass\n    return dict(form=form)\n\n"""Done just needs tweaking based on UI"""\ndef search():\n    search_seq = request.vars.search\n    search_pages = []\n    search_page_ids = []\n    if search_seq is not None:\n        all_pages = db().select(db.descriptor_table.ALL, orderby=db.descriptor_table.sequence_name)\n        for page in all_pages:\n            if (search_seq.lower() in repr(page.sequence_name).lower()):\n                search_page_ids.append(page.id)\n                search_pages.append(page)\n    return dict(search_seq=search_seq, search_pages=search_pages, search_page_ids=search_page_ids)\n\ndef user():\n    """\n    exposes:\n    http://..../[app]/default/user/login\n    http://..../[app]/default/user/logout\n    http://..../[app]/default/user/register\n    http://..../[app]/default/user/profile\n    http://..../[app]/default/user/retrieve_password\n    http://..../[app]/default/user/change_password\n    http://..../[app]/default/user/manage_users (requires membership in\n    use @auth.requires_login()\n        @auth.requires_membership(\'group name\')\n        @auth.requires_permission(\'read\',\'table name\',record_id)\n    to decorate functions that need access control\n    """\n    return dict(form=auth())\n\n\n@cache.action()\ndef download():\n    """\n    allows downloading of uploaded files\n    http://..../[app]/default/download/[filename]\n    """\n    return response.download(request, db)\n\n\ndef call():\n    """\n    exposes services. for example:\n    http://..../[app]/default/call/jsonrpc\n    decorate with @services.jsonrpc the functions to expose\n    supports xml, json, xmlrpc, jsonrpc, amfrpc, rss, csv\n    """\n    return service()\n\n\n@auth.requires_login() \ndef api():\n    """\n    this is example of API with access control\n    WEB2PY provides Hypermedia API (Collection+JSON) Experimental\n    """\n    from gluon.contrib.hypermedia import Collection\n    rules = {\n        \'<tablename>\': {\'GET\':{},\'POST\':{},\'PUT\':{},\'DELETE\':{}},\n        }\n    return Collection(db).process(request,response,rules)\n\nresponse._vars=response._caller(view)\n'
p7
sS'snapshot'
p8
(dp9
S'exception'
p10
(dp11
S'__hash__'
p12
S"<method-wrapper '__hash__' of exceptions.TypeError object>"
p13
sS'__setattr__'
p14
S"<method-wrapper '__setattr__' of exceptions.TypeError object>"
p15
sS'__reduce_ex__'
p16
S'<built-in method __reduce_ex__ of exceptions.TypeError object>'
p17
sS'__getslice__'
p18
S"<method-wrapper '__getslice__' of exceptions.TypeError object>"
p19
sS'__getitem__'
p20
S"<method-wrapper '__getitem__' of exceptions.TypeError object>"
p21
sS'__setstate__'
p22
S'<built-in method __setstate__ of exceptions.TypeError object>'
p23
sS'args'
p24
S"('datetime.datetime(2015, 3, 12, 21, 42, 7, 604876) is not JSON serializable',)"
p25
sS'__reduce__'
p26
S'<built-in method __reduce__ of exceptions.TypeError object>'
p27
sS'__str__'
p28
S"<method-wrapper '__str__' of exceptions.TypeError object>"
p29
sS'__format__'
p30
S'<built-in method __format__ of exceptions.TypeError object>'
p31
sS'__getattribute__'
p32
S"<method-wrapper '__getattribute__' of exceptions.TypeError object>"
p33
sS'__class__'
p34
S"<type 'exceptions.TypeError'>"
p35
sS'__unicode__'
p36
S'<built-in method __unicode__ of exceptions.TypeError object>'
p37
sS'__delattr__'
p38
S"<method-wrapper '__delattr__' of exceptions.TypeError object>"
p39
sS'__subclasshook__'
p40
S'<built-in method __subclasshook__ of type object>'
p41
sS'__repr__'
p42
S"<method-wrapper '__repr__' of exceptions.TypeError object>"
p43
sS'__dict__'
p44
S'{}'
p45
sS'__sizeof__'
p46
S'<built-in method __sizeof__ of exceptions.TypeError object>'
p47
sS'__doc__'
p48
S"'Inappropriate argument type.'"
p49
sS'__init__'
p50
S"<method-wrapper '__init__' of exceptions.TypeError object>"
p51
sS'__new__'
p52
S'<built-in method __new__ of type object>'
p53
ssS'evalue'
p54
S'datetime.datetime(2015, 3, 12, 21, 42, 7, 604876) is not JSON serializable'
p55
sS'request'
p56
cgluon.html
XML_unpickle
p57
(S'sV^\x00\x00<div><table><tr><td style="font-weight:bold;vertical-align:top;">ajax</td><td style="vertical-align:top;">:</td><td><div>False</div></td></tr><tr><td style="font-weight:bold;vertical-align:top;">application</td><td style="vertical-align:top;">:</td><td><div>seq</div></td></tr><tr><td style="font-weight:bold;vertical-align:top;">args</td><td style="vertical-align:top;">:</td><td><div><table><tr><td><div>2</div></td></tr></table></div></td></tr><tr><td style="font-weight:bold;vertical-align:top;">cid</td><td style="vertical-align:top;">:</td><td><div>None</div></td></tr><tr><td style="font-weight:bold;vertical-align:top;">client</td><td style="vertical-align:top;">:</td><td><div>127.0.0.1</div></td></tr><tr><td style="font-weight:bold;vertical-align:top;">controller</td><td style="vertical-align:top;">:</td><td><div>default</div></td></tr><tr><td style="font-weight:bold;vertical-align:top;">cookies</td><td style="vertical-align:top;">:</td><td><div><table><tr><td style="font-weight:bold;vertical-align:top;">session_id_admin</td><td style="vertical-align:top;">:</td><td><div>127.0.0.1-f91453a9-0e6f-4297-89fd-d9b2837f95be<table><tr><td style="font-weight:bold;vertical-align:top;">comment</td><td style="vertical-align:top;">:</td><td><div></div></td></tr><tr><td style="font-weight:bold;vertical-align:top;">domain</td><td style="vertical-align:top;">:</td><td><div></div></td></tr><tr><td style="font-weight:bold;vertical-align:top;">expires</td><td style="vertical-align:top;">:</td><td><div></div></td></tr><tr><td style="font-weight:bold;vertical-align:top;">httponly</td><td style="vertical-align:top;">:</td><td><div></div></td></tr><tr><td style="font-weight:bold;vertical-align:top;">max-age</td><td style="vertical-align:top;">:</td><td><div></div></td></tr><tr><td style="font-weight:bold;vertical-align:top;">path</td><td style="vertical-align:top;">:</td><td><div></div></td></tr><tr><td style="font-weight:bold;vertical-align:top;">secure</td><td style="vertical-align:top;">:</td><td><div></div></td></tr><tr><td style="font-weight:bold;vertical-align:top;">version</td><td style="vertical-align:top;">:</td><td><div></div></td></tr></table></div></td></tr><tr><td style="font-weight:bold;vertical-align:top;">session_id_seq</td><td style="vertical-align:top;">:</td><td><div>127.0.0.1-0c276721-1cab-4668-aa18-0cf5f79dd653<table><tr><td style="font-weight:bold;vertical-align:top;">comment</td><td style="vertical-align:top;">:</td><td><div></div></td></tr><tr><td style="font-weight:bold;vertical-align:top;">domain</td><td style="vertical-align:top;">:</td><td><div></div></td></tr><tr><td style="font-weight:bold;vertical-align:top;">expires</td><td style="vertical-align:top;">:</td><td><div></div></td></tr><tr><td style="font-weight:bold;vertical-align:top;">httponly</td><td style="vertical-align:top;">:</td><td><div></div></td></tr><tr><td style="font-weight:bold;vertical-align:top;">max-age</td><td style="vertical-align:top;">:</td><td><div></div></td></tr><tr><td style="font-weight:bold;vertical-align:top;">path</td><td style="vertical-align:top;">:</td><td><div></div></td></tr><tr><td style="font-weight:bold;vertical-align:top;">secure</td><td style="vertical-align:top;">:</td><td><div></div></td></tr><tr><td style="font-weight:bold;vertical-align:top;">version</td><td style="vertical-align:top;">:</td><td><div></div></td></tr></table></div></td></tr><tr><td style="font-weight:bold;vertical-align:top;">session_id_welcome</td><td style="vertical-align:top;">:</td><td><div>127.0.0.1-f8db661a-be9e-4e64-816e-6c5f364721af<table><tr><td style="font-weight:bold;vertical-align:top;">comment</td><td style="vertical-align:top;">:</td><td><div></div></td></tr><tr><td style="font-weight:bold;vertical-align:top;">domain</td><td style="vertical-align:top;">:</td><td><div></div></td></tr><tr><td style="font-weight:bold;vertical-align:top;">expires</td><td style="vertical-align:top;">:</td><td><div></div></td></tr><tr><td style="font-weight:bold;vertical-align:top;">httponly</td><td style="vertical-align:top;">:</td><td><div></div></td></tr><tr><td style="font-weight:bold;vertical-align:top;">max-age</td><td style="vertical-align:top;">:</td><td><div></div></td></tr><tr><td style="font-weight:bold;vertical-align:top;">path</td><td style="vertical-align:top;">:</td><td><div></div></td></tr><tr><td style="font-weight:bold;vertical-align:top;">secure</td><td style="vertical-align:top;">:</td><td><div></div></td></tr><tr><td style="font-weight:bold;vertical-align:top;">version</td><td style="vertical-align:top;">:</td><td><div></div></td></tr></table></div></td></tr></table></div></td></tr><tr><td style="font-weight:bold;vertical-align:top;">env</td><td style="vertical-align:top;">:</td><td><div><table><tr><td style="font-weight:bold;vertical-align:top;">HTTP_ACCEPT</td><td style="vertical-align:top;">:</td><td><div>text/html,application/xhtml+xml,application/xml;q=0.9,image/webp,*/*;q=0.8</div></td></tr><tr><td style="font-weight:bold;vertical-align:top;">HTTP_ACCEPT_ENCODING</td><td style="vertical-align:top;">:</td><td><div>gzip, deflate, sdch</div></td></tr><tr><td style="font-weight:bold;vertical-align:top;">HTTP_ACCEPT_LANGUAGE</td><td style="vertical-align:top;">:</td><td><div>en-US,en;q=0.8</div></td></tr><tr><td style="font-weight:bold;vertical-align:top;">HTTP_CACHE_CONTROL</td><td style="vertical-align:top;">:</td><td><div>max-age=0</div></td></tr><tr><td style="font-weight:bold;vertical-align:top;">HTTP_CONNECTION</td><td style="vertical-align:top;">:</td><td><div>keep-alive</div></td></tr><tr><td style="font-weight:bold;vertical-align:top;">HTTP_COOKIE</td><td style="vertical-align:top;">:</td><td><div>session_id_welcome=127.0.0.1-f8db661a-be9e-4e64-816e-6c5f364721af; session_id_seq=127.0.0.1-0c276721-1cab-4668-aa18-0cf5f79dd653; session_id_admin=127.0.0.1-f91453a9-0e6f-4297-89fd-d9b2837f95be</div></td></tr><tr><td style="font-weight:bold;vertical-align:top;">HTTP_HOST</td><td style="vertical-align:top;">:</td><td><div>127.0.0.1:8000</div></td></tr><tr><td style="font-weight:bold;vertical-align:top;">HTTP_REFERER</td><td style="vertical-align:top;">:</td><td><div>http://127.0.0.1:8000/seq/default/index</div></td></tr><tr><td style="font-weight:bold;vertical-align:top;">HTTP_USER_AGENT</td><td style="vertical-align:top;">:</td><td><div>Mozilla/5.0 (Macintosh; Intel Mac OS X 10_8_5) AppleWebKit/537.36 (KHTML, like Gecko) Chrome/41.0.2272.89 Safari/537.36</div></td></tr><tr><td style="font-weight:bold;vertical-align:top;">PATH_INFO</td><td style="vertical-align:top;">:</td><td><div>/seq/default/view/2</div></td></tr><tr><td style="font-weight:bold;vertical-align:top;">QUERY_STRING</td><td style="vertical-align:top;">:</td><td><div></div></td></tr><tr><td style="font-weight:bold;vertical-align:top;">REMOTE_ADDR</td><td style="vertical-align:top;">:</td><td><div>127.0.0.1</div></td></tr><tr><td style="font-weight:bold;vertical-align:top;">REMOTE_PORT</td><td style="vertical-align:top;">:</td><td><div>64015</div></td></tr><tr><td style="font-weight:bold;vertical-align:top;">REQUEST_METHOD</td><td style="vertical-align:top;">:</td><td><div>GET</div></td></tr><tr><td style="font-weight:bold;vertical-align:top;">SCRIPT_NAME</td><td style="vertical-align:top;">:</td><td><div></div></td></tr><tr><td style="font-weight:bold;vertical-align:top;">SERVER_NAME</td><td style="vertical-align:top;">:</td><td><div>dhcp-212-233.cruznet.ucsc.edu</div></td></tr><tr><td style="font-weight:bold;vertical-align:top;">SERVER_PORT</td><td style="vertical-align:top;">:</td><td><div>8000</div></td></tr><tr><td style="font-weight:bold;vertical-align:top;">SERVER_PROTOCOL</td><td style="vertical-align:top;">:</td><td><div>HTTP/1.1</div></td></tr><tr><td style="font-weight:bold;vertical-align:top;">SERVER_SOFTWARE</td><td style="vertical-align:top;">:</td><td><div>Rocket 1.2.6</div></td></tr><tr><td style="font-weight:bold;vertical-align:top;">app_folders</td><td style="vertical-align:top;">:</td><td><div>set([&#x27;/Users/mzimmerman/Documents/Shahar/CS183proj/web2py/applications/admin/&#x27;, &#x27;/Users/mzimmerman/Documents/Shahar/CS183proj/web2py/applications/welcome/&#x27;, &#x27;/Users/mzimmerman/Documents/Shahar/CS183proj/web2py/applications/seq/&#x27;])</div></td></tr><tr><td style="font-weight:bold;vertical-align:top;">applications_parent</td><td style="vertical-align:top;">:</td><td><div>/Users/mzimmerman/Documents/Shahar/CS183proj/web2py</div></td></tr><tr><td style="font-weight:bold;vertical-align:top;">cmd_args</td><td style="vertical-align:top;">:</td><td><div><table></table></div></td></tr><tr><td style="font-weight:bold;vertical-align:top;">cmd_options</td><td style="vertical-align:top;">:</td><td><div>&lt;Values at 0x103438050: {&#x27;verbose&#x27;: False, &#x27;ip&#x27;: &#x27;127.0.0.1&#x27;, &#x27;debuglevel&#x27;: 30, &#x27;with_scheduler&#x27;: False, &#x27;ips&#x27;: [&#x27;169.233.212.233&#x27;], &#x27;shutdown_timeout&#x27;: 5, &#x27;taskbar&#x27;: False, &#x27;with_coverage&#x27;: False, &#x27;scheduler_groups&#x27;: None, &#x27;port&#x27;: 8000, &#x27;maxthreads&#x27;: None, &#x27;softcron&#x27;: False, &#x27;server_name&#x27;: &#x27;dhcp-212-233.cruznet.ucsc.edu&#x27;, &#x27;bpython&#x27;: False, &#x27;nogui&#x27;: False, &#x27;pid_filename&#x27;: &#x27;httpserver.pid&#x27;, &#x27;extcron&#x27;: False, &#x27;runcron&#x27;: False, &#x27;run_system_tests&#x27;: False, &#x27;test&#x27;: None, &#x27;folder&#x27;: &#x27;/Users/mzimmerman/Documents/Shahar/CS183proj/web2py&#x27;, &#x27;config&#x27;: &#x27;&#x27;, &#x27;minthreads&#x27;: None, &#x27;shell&#x27;: None, &#x27;run&#x27;: &#x27;&#x27;, &#x27;log_filename&#x27;: &#x27;httpserver.log&#x27;, &#x27;profiler_dir&#x27;: None, &#x27;args&#x27;: [&#x27;&#x27;], &#x27;socket_timeout&#x27;: 5, &#x27;ssl_ca_certificate&#x27;: None, &#x27;scheduler&#x27;: None, &#x27;interfaces&#x27;: None, &#x27;ssl_private_key&#x27;: &#x27;&#x27;, &#x27;gae&#x27;: None, &#x27;password&#x27;: &#x27;&lt;ask&gt;&#x27;, &#x27;request_queue_size&#x27;: 5, &#x27;ssl_certificate&#x27;: &#x27;&#x27;, &#x27;cronjob&#x27;: False, &#x27;numthreads&#x27;: None, &#x27;quiet&#x27;: False, &#x27;import_models&#x27;: False, &#x27;timeout&#x27;: 10, &#x27;plain&#x27;: False, &#x27;nobanner&#x27;: False}&gt;</div></td></tr><tr><td style="font-weight:bold;vertical-align:top;">db_sessions</td><td style="vertical-align:top;">:</td><td><div>set([])</div></td></tr><tr><td style="font-weight:bold;vertical-align:top;">debugging</td><td style="vertical-align:top;">:</td><td><div>False</div></td></tr><tr><td style="font-weight:bold;vertical-align:top;">gluon_parent</td><td style="vertical-align:top;">:</td><td><div>/Users/mzimmerman/Documents/Shahar/CS183proj/web2py</div></td></tr><tr><td style="font-weight:bold;vertical-align:top;">http_accept</td><td style="vertical-align:top;">:</td><td><div>text/html,application/xhtml+xml,application/xml;q=0.9,image/webp,*/*;q=0.8</div></td></tr><tr><td style="font-weight:bold;vertical-align:top;">http_accept_encoding</td><td style="vertical-align:top;">:</td><td><div>gzip, deflate, sdch</div></td></tr><tr><td style="font-weight:bold;vertical-align:top;">http_accept_language</td><td style="vertical-align:top;">:</td><td><div>en-US,en;q=0.8</div></td></tr><tr><td style="font-weight:bold;vertical-align:top;">http_cache_control</td><td style="vertical-align:top;">:</td><td><div>max-age=0</div></td></tr><tr><td style="font-weight:bold;vertical-align:top;">http_connection</td><td style="vertical-align:top;">:</td><td><div>keep-alive</div></td></tr><tr><td style="font-weight:bold;vertical-align:top;">http_cookie</td><td style="vertical-align:top;">:</td><td><div>session_id_welcome=127.0.0.1-f8db661a-be9e-4e64-816e-6c5f364721af; session_id_seq=127.0.0.1-0c276721-1cab-4668-aa18-0cf5f79dd653; session_id_admin=127.0.0.1-f91453a9-0e6f-4297-89fd-d9b2837f95be</div></td></tr><tr><td style="font-weight:bold;vertical-align:top;">http_host</td><td style="vertical-align:top;">:</td><td><div>127.0.0.1:8000</div></td></tr><tr><td style="font-weight:bold;vertical-align:top;">http_referer</td><td style="vertical-align:top;">:</td><td><div>http://127.0.0.1:8000/seq/default/index</div></td></tr><tr><td style="font-weight:bold;vertical-align:top;">http_user_agent</td><td style="vertical-align:top;">:</td><td><div>Mozilla/5.0 (Macintosh; Intel Mac OS X 10_8_5) AppleWebKit/537.36 (KHTML, like Gecko) Chrome/41.0.2272.89 Safari/537.36</div></td></tr><tr><td style="font-weight:bold;vertical-align:top;">is_jython</td><td style="vertical-align:top;">:</td><td><div>False</div></td></tr><tr><td style="font-weight:bold;vertical-align:top;">is_pypy</td><td style="vertical-align:top;">:</td><td><div>False</div></td></tr><tr><td style="font-weight:bold;vertical-align:top;">is_source</td><td style="vertical-align:top;">:</td><td><div>True</div></td></tr><tr><td style="font-weight:bold;vertical-align:top;">local_hosts</td><td style="vertical-align:top;">:</td><td><div><table><tr><td><div>169.233.212.233</div></td></tr><tr><td><div>dhcp-212-233.cruznet.ucsc.edu</div></td></tr><tr><td><div>::1</div></td></tr><tr><td><div>::ffff:127.0.0.1</div></td></tr><tr><td><div>127.0.0.1</div></td></tr></table></div></td></tr><tr><td style="font-weight:bold;vertical-align:top;">path_info</td><td style="vertical-align:top;">:</td><td><div>/seq/default/view/2</div></td></tr><tr><td style="font-weight:bold;vertical-align:top;">query_string</td><td style="vertical-align:top;">:</td><td><div></div></td></tr><tr><td style="font-weight:bold;vertical-align:top;">remote_addr</td><td style="vertical-align:top;">:</td><td><div>127.0.0.1</div></td></tr><tr><td style="font-weight:bold;vertical-align:top;">remote_port</td><td style="vertical-align:top;">:</td><td><div>64015</div></td></tr><tr><td style="font-weight:bold;vertical-align:top;">request_method</td><td style="vertical-align:top;">:</td><td><div>GET</div></td></tr><tr><td style="font-weight:bold;vertical-align:top;">request_uri</td><td style="vertical-align:top;">:</td><td><div>/seq/default/view/2</div></td></tr><tr><td style="font-weight:bold;vertical-align:top;">script_name</td><td style="vertical-align:top;">:</td><td><div></div></td></tr><tr><td style="font-weight:bold;vertical-align:top;">server_name</td><td style="vertical-align:top;">:</td><td><div>dhcp-212-233.cruznet.ucsc.edu</div></td></tr><tr><td style="font-weight:bold;vertical-align:top;">server_port</td><td style="vertical-align:top;">:</td><td><div>8000</div></td></tr><tr><td style="font-weight:bold;vertical-align:top;">server_protocol</td><td style="vertical-align:top;">:</td><td><div>HTTP/1.1</div></td></tr><tr><td style="font-weight:bold;vertical-align:top;">server_software</td><td style="vertical-align:top;">:</td><td><div>Rocket 1.2.6</div></td></tr><tr><td style="font-weight:bold;vertical-align:top;">web2py_path</td><td style="vertical-align:top;">:</td><td><div>/Users/mzimmerman/Documents/Shahar/CS183proj/web2py</div></td></tr><tr><td style="font-weight:bold;vertical-align:top;">web2py_version</td><td style="vertical-align:top;">:</td><td><div>2.9.11-stable+timestamp.2014.09.15.23.35.11</div></td></tr><tr><td style="font-weight:bold;vertical-align:top;">wsgi.errors</td><td style="vertical-align:top;">:</td><td><div>&lt;open file &#x27;&lt;stderr&gt;&#x27;, mode &#x27;w&#x27; at 0x102861270&gt;</div></td></tr><tr><td style="font-weight:bold;vertical-align:top;">wsgi.file_wrapper</td><td style="vertical-align:top;">:</td><td><div>&lt;class wsgiref.util.FileWrapper at 0x1033a3a78&gt;</div></td></tr><tr><td style="font-weight:bold;vertical-align:top;">wsgi.input</td><td style="vertical-align:top;">:</td><td><div>&lt;socket._fileobject object at 0x10a41f050&gt;</div></td></tr><tr><td style="font-weight:bold;vertical-align:top;">wsgi.multiprocess</td><td style="vertical-align:top;">:</td><td><div>False</div></td></tr><tr><td style="font-weight:bold;vertical-align:top;">wsgi.multithread</td><td style="vertical-align:top;">:</td><td><div>True</div></td></tr><tr><td style="font-weight:bold;vertical-align:top;">wsgi.run_once</td><td style="vertical-align:top;">:</td><td><div>False</div></td></tr><tr><td style="font-weight:bold;vertical-align:top;">wsgi.url_scheme</td><td style="vertical-align:top;">:</td><td><div>http</div></td></tr><tr><td style="font-weight:bold;vertical-align:top;">wsgi.version</td><td style="vertical-align:top;">:</td><td><div><table><tr><td><div>1</div></td></tr><tr><td><div>0</div></td></tr></table></div></td></tr><tr><td style="font-weight:bold;vertical-align:top;">wsgi_errors</td><td style="vertical-align:top;">:</td><td><div>&lt;open file &#x27;&lt;stderr&gt;&#x27;, mode &#x27;w&#x27; at 0x102861270&gt;</div></td></tr><tr><td style="font-weight:bold;vertical-align:top;">wsgi_file_wrapper</td><td style="vertical-align:top;">:</td><td><div>&lt;class wsgiref.util.FileWrapper at 0x1033a3a78&gt;</div></td></tr><tr><td style="font-weight:bold;vertical-align:top;">wsgi_input</td><td style="vertical-align:top;">:</td><td><div>&lt;socket._fileobject object at 0x10a41f050&gt;</div></td></tr><tr><td style="font-weight:bold;vertical-align:top;">wsgi_multiprocess</td><td style="vertical-align:top;">:</td><td><div>False</div></td></tr><tr><td style="font-weight:bold;vertical-align:top;">wsgi_multithread</td><td style="vertical-align:top;">:</td><td><div>True</div></td></tr><tr><td style="font-weight:bold;vertical-align:top;">wsgi_run_once</td><td style="vertical-align:top;">:</td><td><div>False</div></td></tr><tr><td style="font-weight:bold;vertical-align:top;">wsgi_url_scheme</td><td style="vertical-align:top;">:</td><td><div>http</div></td></tr><tr><td style="font-weight:bold;vertical-align:top;">wsgi_version</td><td style="vertical-align:top;">:</td><td><div><table><tr><td><div>1</div></td></tr><tr><td><div>0</div></td></tr></table></div></td></tr></table></div></td></tr><tr><td style="font-weight:bold;vertical-align:top;">extension</td><td style="vertical-align:top;">:</td><td><div>html</div></td></tr><tr><td style="font-weight:bold;vertical-align:top;">folder</td><td style="vertical-align:top;">:</td><td><div>/Users/mzimmerman/Documents/Shahar/CS183proj/web2py/applications/seq/</div></td></tr><tr><td style="font-weight:bold;vertical-align:top;">function</td><td style="vertical-align:top;">:</td><td><div>view</div></td></tr><tr><td style="font-weight:bold;vertical-align:top;">global_settings</td><td style="vertical-align:top;">:</td><td><div><table><tr><td style="font-weight:bold;vertical-align:top;">app_folders</td><td style="vertical-align:top;">:</td><td><div>set([&#x27;/Users/mzimmerman/Documents/Shahar/CS183proj/web2py/applications/admin/&#x27;, &#x27;/Users/mzimmerman/Documents/Shahar/CS183proj/web2py/applications/welcome/&#x27;, &#x27;/Users/mzimmerman/Documents/Shahar/CS183proj/web2py/applications/seq/&#x27;])</div></td></tr><tr><td style="font-weight:bold;vertical-align:top;">applications_parent</td><td style="vertical-align:top;">:</td><td><div>/Users/mzimmerman/Documents/Shahar/CS183proj/web2py</div></td></tr><tr><td style="font-weight:bold;vertical-align:top;">cmd_args</td><td style="vertical-align:top;">:</td><td><div><table></table></div></td></tr><tr><td style="font-weight:bold;vertical-align:top;">cmd_options</td><td style="vertical-align:top;">:</td><td><div>&lt;Values at 0x103438050: {&#x27;verbose&#x27;: False, &#x27;ip&#x27;: &#x27;127.0.0.1&#x27;, &#x27;debuglevel&#x27;: 30, &#x27;with_scheduler&#x27;: False, &#x27;ips&#x27;: [&#x27;169.233.212.233&#x27;], &#x27;shutdown_timeout&#x27;: 5, &#x27;taskbar&#x27;: False, &#x27;with_coverage&#x27;: False, &#x27;scheduler_groups&#x27;: None, &#x27;port&#x27;: 8000, &#x27;maxthreads&#x27;: None, &#x27;softcron&#x27;: False, &#x27;server_name&#x27;: &#x27;dhcp-212-233.cruznet.ucsc.edu&#x27;, &#x27;bpython&#x27;: False, &#x27;nogui&#x27;: False, &#x27;pid_filename&#x27;: &#x27;httpserver.pid&#x27;, &#x27;extcron&#x27;: False, &#x27;runcron&#x27;: False, &#x27;run_system_tests&#x27;: False, &#x27;test&#x27;: None, &#x27;folder&#x27;: &#x27;/Users/mzimmerman/Documents/Shahar/CS183proj/web2py&#x27;, &#x27;config&#x27;: &#x27;&#x27;, &#x27;minthreads&#x27;: None, &#x27;shell&#x27;: None, &#x27;run&#x27;: &#x27;&#x27;, &#x27;log_filename&#x27;: &#x27;httpserver.log&#x27;, &#x27;profiler_dir&#x27;: None, &#x27;args&#x27;: [&#x27;&#x27;], &#x27;socket_timeout&#x27;: 5, &#x27;ssl_ca_certificate&#x27;: None, &#x27;scheduler&#x27;: None, &#x27;interfaces&#x27;: None, &#x27;ssl_private_key&#x27;: &#x27;&#x27;, &#x27;gae&#x27;: None, &#x27;password&#x27;: &#x27;&lt;ask&gt;&#x27;, &#x27;request_queue_size&#x27;: 5, &#x27;ssl_certificate&#x27;: &#x27;&#x27;, &#x27;cronjob&#x27;: False, &#x27;numthreads&#x27;: None, &#x27;quiet&#x27;: False, &#x27;import_models&#x27;: False, &#x27;timeout&#x27;: 10, &#x27;plain&#x27;: False, &#x27;nobanner&#x27;: False}&gt;</div></td></tr><tr><td style="font-weight:bold;vertical-align:top;">db_sessions</td><td style="vertical-align:top;">:</td><td><div>set([])</div></td></tr><tr><td style="font-weight:bold;vertical-align:top;">debugging</td><td style="vertical-align:top;">:</td><td><div>False</div></td></tr><tr><td style="font-weight:bold;vertical-align:top;">gluon_parent</td><td style="vertical-align:top;">:</td><td><div>/Users/mzimmerman/Documents/Shahar/CS183proj/web2py</div></td></tr><tr><td style="font-weight:bold;vertical-align:top;">is_jython</td><td style="vertical-align:top;">:</td><td><div>False</div></td></tr><tr><td style="font-weight:bold;vertical-align:top;">is_pypy</td><td style="vertical-align:top;">:</td><td><div>False</div></td></tr><tr><td style="font-weight:bold;vertical-align:top;">is_source</td><td style="vertical-align:top;">:</td><td><div>True</div></td></tr><tr><td style="font-weight:bold;vertical-align:top;">local_hosts</td><td style="vertical-align:top;">:</td><td><div><table><tr><td><div>169.233.212.233</div></td></tr><tr><td><div>dhcp-212-233.cruznet.ucsc.edu</div></td></tr><tr><td><div>::1</div></td></tr><tr><td><div>::ffff:127.0.0.1</div></td></tr><tr><td><div>127.0.0.1</div></td></tr></table></div></td></tr><tr><td style="font-weight:bold;vertical-align:top;">web2py_version</td><td style="vertical-align:top;">:</td><td><div>2.9.11-stable+timestamp.2014.09.15.23.35.11</div></td></tr></table></div></td></tr><tr><td style="font-weight:bold;vertical-align:top;">is_https</td><td style="vertical-align:top;">:</td><td><div>False</div></td></tr><tr><td style="font-weight:bold;vertical-align:top;">is_local</td><td style="vertical-align:top;">:</td><td><div>True</div></td></tr><tr><td style="font-weight:bold;vertical-align:top;">is_restful</td><td style="vertical-align:top;">:</td><td><div>False</div></td></tr><tr><td style="font-weight:bold;vertical-align:top;">is_sheduler</td><td style="vertical-align:top;">:</td><td><div>None</div></td></tr><tr><td style="font-weight:bold;vertical-align:top;">is_shell</td><td style="vertical-align:top;">:</td><td><div>None</div></td></tr><tr><td style="font-weight:bold;vertical-align:top;">now</td><td style="vertical-align:top;">:</td><td><div>datetime.datetime(2015, 3, 12, 14, 42, 7, 558578)</div></td></tr><tr><td style="font-weight:bold;vertical-align:top;">raw_args</td><td style="vertical-align:top;">:</td><td><div>2</div></td></tr><tr><td style="font-weight:bold;vertical-align:top;">raw_extension</td><td style="vertical-align:top;">:</td><td><div>None</div></td></tr><tr><td style="font-weight:bold;vertical-align:top;">url</td><td style="vertical-align:top;">:</td><td><div>/seq/default/view/2</div></td></tr><tr><td style="font-weight:bold;vertical-align:top;">utcnow</td><td style="vertical-align:top;">:</td><td><div>datetime.datetime(2015, 3, 12, 21, 42, 7, 558953)</div></td></tr><tr><td style="font-weight:bold;vertical-align:top;">uuid</td><td style="vertical-align:top;">:</td><td><div>seq/127.0.0.1.2015-03-12.14-42-07.c8ab75e5-3450-4f67-bcb2-682c56d92b15</div></td></tr><tr><td style="font-weight:bold;vertical-align:top;">wsgi</td><td style="vertical-align:top;">:</td><td><div>&lt;gluon.main.LazyWSGI object at 0x10a489a50&gt;</div></td></tr></table></div>'
tRp58
sS'frames'
p59
(lp60
(dp61
S'file'
p62
S'/Users/mzimmerman/Documents/Shahar/CS183proj/web2py/gluon/restricted.py'
p63
sS'dump'
p64
(dp65
S'environment'
p66
S"{'A': <class 'gluon.html.A'>, 'ANY_OF': <class 'gluon.validators.ANY_OF'>, 'ASSIGNJS': <function ASSIGNJS>, 'Auth': <class 'gluon.tools.Auth'>, 'B': <class 'gluon.html.B'>, 'BEAUTIFY': <class 'gluon.html.BEAUTIFY'>, 'BODY': <class 'gluon.html.BODY'>, 'BR': <class 'gluon.html.BR'>, 'BUTTON': <class 'gluon.html.BUTTON'>, 'CAT': <class 'gluon.html.CAT'>, ...}"
p67
sS'ccode'
p68
S'<code object <module> at 0x10825a4b0, file "/Use...pplications/seq/controllers/default.py", line 12>'
p69
ssS'lnum'
p70
I224
sS'lines'
p71
(dp72
I224
S'        exec ccode in environment'
p73
sI225
S'    except HTTP:'
p74
sI226
S'        raise'
p75
sI227
S'    except RestrictedError:'
p76
sI228
S'        # do not encapsulate (obfuscate) the original RestrictedError'
p77
sI219
S'    try:'
p78
sI220
S'        if isinstance(code, types.CodeType):'
p79
sI221
S'            ccode = code'
p80
sI222
S'        else:'
p81
sI223
S'            ccode = compile2(code, layer)'
p82
ssS'call'
p83
S"(code='# -*- coding: utf-8 -*-\\n# this file is released ...se,rules)\\n\\nresponse._vars=response._caller(view)\\n', environment={'A': <class 'gluon.html.A'>, 'ANY_OF': <class 'gluon.validators.ANY_OF'>, 'ASSIGNJS': <function ASSIGNJS>, 'Auth': <class 'gluon.tools.Auth'>, 'B': <class 'gluon.html.B'>, 'BEAUTIFY': <class 'gluon.html.BEAUTIFY'>, 'BODY': <class 'gluon.html.BODY'>, 'BR': <class 'gluon.html.BR'>, 'BUTTON': <class 'gluon.html.BUTTON'>, 'CAT': <class 'gluon.html.CAT'>, ...}, layer='/Users/mzimmerman/Documents/Shahar/CS183proj/web2py/applications/seq/controllers/default.py')"
p84
sS'func'
p85
S'restricted'
p86
sa(dp87
g62
S'/Users/mzimmerman/Documents/Shahar/CS183proj/web2py/applications/seq/controllers/default.py'
p88
sg64
(dp89
sg70
I315
sg71
(dp90
I304
S'def api():'
p91
sI305
S'    """'
p92
sI306
S'    this is example of API with access control'
p93
sI307
S'    WEB2PY provides Hypermedia API (Collection+JSON) Experimental'
p94
sI308
S'    """'
p95
sI309
S'    from gluon.contrib.hypermedia import Collection'
p96
sI310
S'    rules = {'
p97
sI311
S"        '<tablename>': {'GET':{},'POST':{},'PUT':{},'DELETE':{}},"
p98
sI312
S'        }'
p99
sI313
S'    return Collection(db).process(request,response,rules)'
p100
ssg83
S'()'
p101
sg85
S'<module>'
p102
sa(dp103
g62
S'/Users/mzimmerman/Documents/Shahar/CS183proj/web2py/gluon/globals.py'
p104
sg64
(dp105
S'self'
p106
S'undefined'
p107
sS'f'
S'<function view>'
p108
ssg70
I392
sg71
(dp109
I387
S"        self.flash = ''            # used by the default view layout"
p110
sI388
S'        self.meta = Storage()      # used by web2py_ajax.html'
p111
sI389
S'        self.menu = []             # used by the default view layout'
p112
sI390
S'        self.files = []            # used by web2py_ajax.html'
p113
sI391
S'        self._vars = None'
p114
sI392
S'        self._caller = lambda f: f()'
p115
sI393
S'        self._view_environment = None'
p116
sI394
S'        self._custom_commit = None'
p117
sI395
S'        self._custom_rollback = None'
p118
sI396
S"        self.generic_patterns = ['*']"
p119
ssg83
S'(f=<function view>)'
p120
sg85
S'<lambda>'
p121
sa(dp122
g62
S'/Users/mzimmerman/Documents/Shahar/CS183proj/web2py/applications/seq/controllers/default.py'
p123
sg64
(dp124
S'annotation_list'
p125
S"[{'annotation_description': 'A test annotation hard-coded in for now', 'annotation_location': [20], 'annotation_name': 'Test single annotation', 'annotation_sequence': 'ACTGACTGACTGACTGACTGACTGACTGACTGACTGACTGACTGACTG', 'date_created': datetime.datetime(2015, 3, 12, 21, 42, 7, 604876)}, {'annotation_description': 'A test annotation hard-coded in for now', 'annotation_location': [130, 200], 'annotation_name': 'Test multi annotation', 'annotation_sequence': 'ACTGACTGACTGACTGACTGACTGACTGACTGACTGACTGACTGACTG', 'date_created': datetime.datetime(2015, 3, 12, 21, 21, 34)}]"
p126
sS'global json'
p127
S"<module 'gluon.contrib.simplejson' from '/Users/...oj/web2py/gluon/contrib/simplejson/__init__.pyc'>"
p128
sS'json.dumps'
p129
S'<function dumps>'
p130
ssg70
I169
sg71
(dp131
I164
S"               'date_created' : date_created,"
p132
sI165
S"               'annotation_description' : 'A test annotation hard-coded in for now',"
p133
sI166
S"               'annotation_sequence' : 'ACTGACTGACTGACTGACTGACTGACTGACTGACTGACTGACTGACTG'"
p134
sI167
S'           }'
p135
sI168
S'       ]'
p136
sI169
S'       annotation_list = json.dumps(annotation_list)'
p137
sI170
S''
sI171
S'   return locals()'
p138
sI172
S''
sI173
S'   """suscriptions_of_user= db((db.descriptor_to_user.user_id==auth.user_id)&(db.descriptor_to_user.descriptor_id==db.descriptor_table.id)&(db.descriptor_table.seq_id == db.sequences.id)).select(db.descriptor_table.ALL)'
p139
ssg83
S'()'
p140
sg85
S'view'
p141
sa(dp142
g62
S'/Users/mzimmerman/Documents/Shahar/CS183proj/web2py/gluon/contrib/simplejson/__init__.py'
p143
sg64
(dp144
S'_default_encoder.encode'
p145
S'<bound method JSONEncoder.encode of <gluon.contrib.simplejson.encoder.JSONEncoder object>>'
p146
sS'global _default_encoder'
p147
S'<gluon.contrib.simplejson.encoder.JSONEncoder object>'
p148
sS'obj'
p149
S"[{'annotation_description': 'A test annotation hard-coded in for now', 'annotation_location': [20], 'annotation_name': 'Test single annotation', 'annotation_sequence': 'ACTGACTGACTGACTGACTGACTGACTGACTGACTGACTGACTGACTG', 'date_created': datetime.datetime(2015, 3, 12, 21, 42, 7, 604876)}, {'annotation_description': 'A test annotation hard-coded in for now', 'annotation_location': [130, 200], 'annotation_name': 'Test multi annotation', 'annotation_sequence': 'ACTGACTGACTGACTGACTGACTGACTGACTGACTGACTGACTGACTG', 'date_created': datetime.datetime(2015, 3, 12, 21, 21, 34)}]"
p150
ssg70
I263
sg71
(dp151
I258
S'    if (not skipkeys and ensure_ascii and'
p152
sI259
S'        check_circular and allow_nan and'
p153
sI260
S'        cls is None and indent is None and separators is None and'
p154
sI261
S"        encoding == 'utf-8' and default is None and not use_decimal"
p155
sI262
S'        and not kw):'
p156
sI263
S'        return _default_encoder.encode(obj)'
p157
sI264
S'    if cls is None:'
p158
sI265
S'        cls = JSONEncoder'
p159
sI266
S'    return cls('
p160
sI267
S'        skipkeys=skipkeys, ensure_ascii=ensure_ascii,'
p161
ssg83
S"(obj=[{'annotation_description': 'A test annotation hard-coded in for now', 'annotation_location': [20], 'annotation_name': 'Test single annotation', 'annotation_sequence': 'ACTGACTGACTGACTGACTGACTGACTGACTGACTGACTGACTGACTG', 'date_created': datetime.datetime(2015, 3, 12, 21, 42, 7, 604876)}, {'annotation_description': 'A test annotation hard-coded in for now', 'annotation_location': [130, 200], 'annotation_name': 'Test multi annotation', 'annotation_sequence': 'ACTGACTGACTGACTGACTGACTGACTGACTGACTGACTGACTGACTG', 'date_created': datetime.datetime(2015, 3, 12, 21, 21, 34)}], skipkeys=False, ensure_ascii=True, check_circular=True, allow_nan=True, cls=None, indent=None, separators=None, encoding='utf-8', default=None, use_decimal=False, **kw={})"
p162
sg85
S'dumps'
p163
sa(dp164
g62
S'/Users/mzimmerman/Documents/Shahar/CS183proj/web2py/gluon/contrib/simplejson/encoder.py'
p165
sg64
(dp166
S'chunks'
p167
S'<generator object _iterencode>'
p168
sS'builtinlist'
p169
S"<type 'list'>"
p170
ssg70
I217
sg71
(dp171
I212
S"        # This doesn't pass the iterator directly to ''.join() because the"
p172
sI213
S"        # exceptions aren't as detailed.  The list call should be roughly"
p173
sI214
S"        # equivalent to the PySequence_Fast that ''.join() would do."
p174
sI215
S'        chunks = self.iterencode(o, _one_shot=True)'
p175
sI216
S'        if not isinstance(chunks, (list, tuple)):'
p176
sI217
S'            chunks = list(chunks)'
p177
sI218
S'        if self.ensure_ascii:'
p178
sI219
S"            return ''.join(chunks)"
p179
sI220
S'        else:'
p180
sI221
S"            return u''.join(chunks)"
p181
ssg83
S"(self=<gluon.contrib.simplejson.encoder.JSONEncoder object>, o=[{'annotation_description': 'A test annotation hard-coded in for now', 'annotation_location': [20], 'annotation_name': 'Test single annotation', 'annotation_sequence': 'ACTGACTGACTGACTGACTGACTGACTGACTGACTGACTGACTGACTG', 'date_created': datetime.datetime(2015, 3, 12, 21, 42, 7, 604876)}, {'annotation_description': 'A test annotation hard-coded in for now', 'annotation_location': [130, 200], 'annotation_name': 'Test multi annotation', 'annotation_sequence': 'ACTGACTGACTGACTGACTGACTGACTGACTGACTGACTGACTGACTG', 'date_created': datetime.datetime(2015, 3, 12, 21, 21, 34)}])"
p182
sg85
S'encode'
p183
sa(dp184
g62
S'/Users/mzimmerman/Documents/Shahar/CS183proj/web2py/gluon/contrib/simplejson/encoder.py'
p185
sg64
(dp186
S'_current_indent_level'
p187
S'0'
sS'chunk'
p188
S"': '"
p189
sS'o'
S"[{'annotation_description': 'A test annotation hard-coded in for now', 'annotation_location': [20], 'annotation_name': 'Test single annotation', 'annotation_sequence': 'ACTGACTGACTGACTGACTGACTGACTGACTGACTGACTGACTGACTG', 'date_created': datetime.datetime(2015, 3, 12, 21, 42, 7, 604876)}, {'annotation_description': 'A test annotation hard-coded in for now', 'annotation_location': [130, 200], 'annotation_name': 'Test multi annotation', 'annotation_sequence': 'ACTGACTGACTGACTGACTGACTGACTGACTGACTGACTGACTGACTG', 'date_created': datetime.datetime(2015, 3, 12, 21, 21, 34)}]"
p190
sS'_iterencode_list'
p191
S'<function _iterencode_list>'
p192
ssg70
I483
sg71
(dp193
I480
S'        elif isinstance(o, float):'
p194
sI481
S'            yield _floatstr(o)'
p195
sI482
S'        elif isinstance(o, (list, tuple)):'
p196
sI483
S'            for chunk in _iterencode_list(o, _current_indent_level):'
p197
sI484
S'                yield chunk'
p198
sI485
S'        elif isinstance(o, dict):'
p199
sI486
S'            for chunk in _iterencode_dict(o, _current_indent_level):'
p200
sI487
S'                yield chunk'
p201
sI478
S'        elif isinstance(o, (int, long)):'
p202
sI479
S'            yield str(o)'
p203
ssg83
S"(o=[{'annotation_description': 'A test annotation hard-coded in for now', 'annotation_location': [20], 'annotation_name': 'Test single annotation', 'annotation_sequence': 'ACTGACTGACTGACTGACTGACTGACTGACTGACTGACTGACTGACTG', 'date_created': datetime.datetime(2015, 3, 12, 21, 42, 7, 604876)}, {'annotation_description': 'A test annotation hard-coded in for now', 'annotation_location': [130, 200], 'annotation_name': 'Test multi annotation', 'annotation_sequence': 'ACTGACTGACTGACTGACTGACTGACTGACTGACTGACTGACTGACTG', 'date_created': datetime.datetime(2015, 3, 12, 21, 21, 34)}], _current_indent_level=0)"
p204
sg85
S'_iterencode'
p205
sa(dp206
g62
S'/Users/mzimmerman/Documents/Shahar/CS183proj/web2py/gluon/contrib/simplejson/encoder.py'
p207
sg64
(dp208
S'chunks'
p209
S'<generator object _iterencode_dict>'
p210
sS'chunk'
p211
S"': '"
p212
ssg70
I381
sg71
(dp213
I384
S'            _current_indent_level -= 1'
p214
sI385
S"            yield '\\n' + (_indent * _current_indent_level)"
p215
sI376
S'                    chunks = _iterencode_list(value, _current_indent_level)'
p216
sI377
S'                elif isinstance(value, dict):'
p217
sI378
S'                    chunks = _iterencode_dict(value, _current_indent_level)'
p218
sI379
S'                else:'
p219
sI380
S'                    chunks = _iterencode(value, _current_indent_level)'
p220
sI381
S'                for chunk in chunks:'
p221
sI382
S'                    yield chunk'
p222
sI383
S'        if newline_indent is not None:'
p223
ssg83
S"(lst=[{'annotation_description': 'A test annotation hard-coded in for now', 'annotation_location': [20], 'annotation_name': 'Test single annotation', 'annotation_sequence': 'ACTGACTGACTGACTGACTGACTGACTGACTGACTGACTGACTGACTG', 'date_created': datetime.datetime(2015, 3, 12, 21, 42, 7, 604876)}, {'annotation_description': 'A test annotation hard-coded in for now', 'annotation_location': [130, 200], 'annotation_name': 'Test multi annotation', 'annotation_sequence': 'ACTGACTGACTGACTGACTGACTGACTGACTGACTGACTGACTGACTG', 'date_created': datetime.datetime(2015, 3, 12, 21, 21, 34)}], _current_indent_level=0)"
p224
sg85
S'_iterencode_list'
p225
sa(dp226
g62
S'/Users/mzimmerman/Documents/Shahar/CS183proj/web2py/gluon/contrib/simplejson/encoder.py'
p227
sg64
(dp228
S'chunks'
p229
S'<generator object _iterencode>'
p230
sS'chunk'
p231
g107
ssg70
I460
sg71
(dp232
I455
S'                    chunks = _iterencode_list(value, _current_indent_level)'
p233
sI456
S'                elif isinstance(value, dict):'
p234
sI457
S'                    chunks = _iterencode_dict(value, _current_indent_level)'
p235
sI458
S'                else:'
p236
sI459
S'                    chunks = _iterencode(value, _current_indent_level)'
p237
sI460
S'                for chunk in chunks:'
p238
sI461
S'                    yield chunk'
p239
sI462
S'        if newline_indent is not None:'
p240
sI463
S'            _current_indent_level -= 1'
p241
sI464
S"            yield '\\n' + (_indent * _current_indent_level)"
p242
ssg83
S"(dct={'annotation_description': 'A test annotation hard-coded in for now', 'annotation_location': [20], 'annotation_name': 'Test single annotation', 'annotation_sequence': 'ACTGACTGACTGACTGACTGACTGACTGACTGACTGACTGACTGACTG', 'date_created': datetime.datetime(2015, 3, 12, 21, 42, 7, 604876)}, _current_indent_level=0)"
p243
sg85
S'_iterencode_dict'
p244
sa(dp245
g62
S'/Users/mzimmerman/Documents/Shahar/CS183proj/web2py/gluon/contrib/simplejson/encoder.py'
p246
sg64
(dp247
S'_default'
p248
S'<bound method JSONEncoder.default of <gluon.contrib.simplejson.encoder.JSONEncoder object>>'
p249
sS'o'
S'datetime.datetime(2015, 3, 12, 21, 42, 7, 604876)'
p250
ssg70
I496
sg71
(dp251
I491
S'            if markers is not None:'
p252
sI492
S'                markerid = id(o)'
p253
sI493
S'                if markerid in markers:'
p254
sI494
S'                    raise ValueError("Circular reference detected")'
p255
sI495
S'                markers[markerid] = o'
p256
sI496
S'            o = _default(o)'
p257
sI497
S'            for chunk in _iterencode(o, _current_indent_level):'
p258
sI498
S'                yield chunk'
p259
sI499
S'            if markers is not None:'
p260
sI500
S'                del markers[markerid]'
p261
ssg83
S'(o=datetime.datetime(2015, 3, 12, 21, 42, 7, 604876), _current_indent_level=0)'
p262
sg85
g205
sa(dp263
g62
S'/Users/mzimmerman/Documents/Shahar/CS183proj/web2py/gluon/contrib/simplejson/encoder.py'
p264
sg64
(dp265
S'builtinrepr'
p266
S'<built-in function repr>'
p267
sS'builtinTypeError'
p268
S"<type 'exceptions.TypeError'>"
p269
sS'o'
S'datetime.datetime(2015, 3, 12, 21, 42, 7, 604876)'
p270
ssg70
I191
sg71
(dp271
I192
S''
sI193
S'    def encode(self, o):'
p272
sI194
S'        """Return a JSON string representation of a Python data structure.'
p273
sI195
S''
sI186
S'                else:'
p274
sI187
S'                    return list(iterable)'
p275
sI188
S'                return JSONEncoder.default(self, o)'
p276
sI189
S''
sI190
S'        """'
p277
sI191
S'        raise TypeError(repr(o) + " is not JSON serializable")'
p278
ssg83
S'(self=<gluon.contrib.simplejson.encoder.JSONEncoder object>, o=datetime.datetime(2015, 3, 12, 21, 42, 7, 604876))'
p279
sg85
S'default'
p280
sasS'pyver'
p281
S'Python 2.7.2: /usr/bin/python (prefix: /System/Library/Frameworks/Python.framework/Versions/2.7)'
p282
sS'session'
p283
g57
(S's\xec\x08\x00\x00<div><table><tr><td style="font-weight:bold;vertical-align:top;">auth</td><td style="vertical-align:top;">:</td><td><div><table><tr><td style="font-weight:bold;vertical-align:top;">expiration</td><td style="vertical-align:top;">:</td><td><div>3600</div></td></tr><tr><td style="font-weight:bold;vertical-align:top;">hmac_key</td><td style="vertical-align:top;">:</td><td><div>985db382-e6d0-423e-8245-b1759faa7593</div></td></tr><tr><td style="font-weight:bold;vertical-align:top;">last_visit</td><td style="vertical-align:top;">:</td><td><div>datetime.datetime(2015, 3, 12, 14, 42, 7, 558578)</div></td></tr><tr><td style="font-weight:bold;vertical-align:top;">remember_me</td><td style="vertical-align:top;">:</td><td><div>False</div></td></tr><tr><td style="font-weight:bold;vertical-align:top;">user</td><td style="vertical-align:top;">:</td><td><div><table><tr><td style="font-weight:bold;vertical-align:top;">email</td><td style="vertical-align:top;">:</td><td><div>szimmer1@ucsc.edu</div></td></tr><tr><td style="font-weight:bold;vertical-align:top;">first_name</td><td style="vertical-align:top;">:</td><td><div>Shahar</div></td></tr><tr><td style="font-weight:bold;vertical-align:top;">id</td><td style="vertical-align:top;">:</td><td><div>1L</div></td></tr><tr><td style="font-weight:bold;vertical-align:top;">last_name</td><td style="vertical-align:top;">:</td><td><div>Zimmerman</div></td></tr><tr><td style="font-weight:bold;vertical-align:top;">registration_id</td><td style="vertical-align:top;">:</td><td><div></div></td></tr><tr><td style="font-weight:bold;vertical-align:top;">registration_key</td><td style="vertical-align:top;">:</td><td><div></div></td></tr><tr><td style="font-weight:bold;vertical-align:top;">reset_password_key</td><td style="vertical-align:top;">:</td><td><div></div></td></tr></table></div></td></tr><tr><td style="font-weight:bold;vertical-align:top;">user_groups</td><td style="vertical-align:top;">:</td><td><div><table><tr><td style="font-weight:bold;vertical-align:top;">1</td><td style="vertical-align:top;">:</td><td><div>user_1</div></td></tr></table></div></td></tr></table></div></td></tr><tr><td style="font-weight:bold;vertical-align:top;">flash</td><td style="vertical-align:top;">:</td><td><div>None</div></td></tr></table></div>'
tRp284
sS'etype'
p285
S"<type 'exceptions.TypeError'>"
p286
sS'date'
p287
S'Thu Mar 12 14:42:07 2015'
p288
sS'response'
p289
g57
(S'sG\x1c\x00\x00<div><table><tr><td style="font-weight:bold;vertical-align:top;">body</td><td style="vertical-align:top;">:</td><td><div>&lt;cStringIO.StringO object at 0x10a3a69d0&gt;</div></td></tr><tr><td style="font-weight:bold;vertical-align:top;">cookies</td><td style="vertical-align:top;">:</td><td><div><table><tr><td style="font-weight:bold;vertical-align:top;">session_id_seq</td><td style="vertical-align:top;">:</td><td><div>127.0.0.1-0c276721-1cab-4668-aa18-0cf5f79dd653<table><tr><td style="font-weight:bold;vertical-align:top;">comment</td><td style="vertical-align:top;">:</td><td><div></div></td></tr><tr><td style="font-weight:bold;vertical-align:top;">domain</td><td style="vertical-align:top;">:</td><td><div></div></td></tr><tr><td style="font-weight:bold;vertical-align:top;">expires</td><td style="vertical-align:top;">:</td><td><div></div></td></tr><tr><td style="font-weight:bold;vertical-align:top;">httponly</td><td style="vertical-align:top;">:</td><td><div></div></td></tr><tr><td style="font-weight:bold;vertical-align:top;">max-age</td><td style="vertical-align:top;">:</td><td><div></div></td></tr><tr><td style="font-weight:bold;vertical-align:top;">path</td><td style="vertical-align:top;">:</td><td><div>/</div></td></tr><tr><td style="font-weight:bold;vertical-align:top;">secure</td><td style="vertical-align:top;">:</td><td><div></div></td></tr><tr><td style="font-weight:bold;vertical-align:top;">version</td><td style="vertical-align:top;">:</td><td><div></div></td></tr></table></div></td></tr></table></div></td></tr><tr><td style="font-weight:bold;vertical-align:top;">delimiters</td><td style="vertical-align:top;">:</td><td><div><table><tr><td><div>{{</div></td></tr><tr><td><div>}}</div></td></tr></table></div></td></tr><tr><td style="font-weight:bold;vertical-align:top;">files</td><td style="vertical-align:top;">:</td><td><div><table></table></div></td></tr><tr><td style="font-weight:bold;vertical-align:top;">flash</td><td style="vertical-align:top;">:</td><td><div></div></td></tr><tr><td style="font-weight:bold;vertical-align:top;">form_label_separator</td><td style="vertical-align:top;">:</td><td><div>: </div></td></tr><tr><td style="font-weight:bold;vertical-align:top;">formstyle</td><td style="vertical-align:top;">:</td><td><div>table3cols</div></td></tr><tr><td style="font-weight:bold;vertical-align:top;">generic_patterns</td><td style="vertical-align:top;">:</td><td><div><table><tr><td><div>*</div></td></tr></table></div></td></tr><tr><td style="font-weight:bold;vertical-align:top;">google_analytics_id</td><td style="vertical-align:top;">:</td><td><div>None</div></td></tr><tr><td style="font-weight:bold;vertical-align:top;">headers</td><td style="vertical-align:top;">:</td><td><div><table><tr><td style="font-weight:bold;vertical-align:top;">X-Powered-By</td><td style="vertical-align:top;">:</td><td><div>web2py</div></td></tr></table></div></td></tr><tr><td style="font-weight:bold;vertical-align:top;">logo</td><td style="vertical-align:top;">:</td><td><div><a class="brand" href="http://www.web2py.com/"><b>web<span>2</span>py</b>&trade;&nbsp;</a></div></td></tr><tr><td style="font-weight:bold;vertical-align:top;">menu</td><td style="vertical-align:top;">:</td><td><div><table></table></div></td></tr><tr><td style="font-weight:bold;vertical-align:top;">meta</td><td style="vertical-align:top;">:</td><td><div><table><tr><td style="font-weight:bold;vertical-align:top;">author</td><td style="vertical-align:top;">:</td><td><div>Your Name &lt;you@example.com&gt;</div></td></tr><tr><td style="font-weight:bold;vertical-align:top;">generator</td><td style="vertical-align:top;">:</td><td><div>Web2py Web Framework</div></td></tr><tr><td style="font-weight:bold;vertical-align:top;">keywords</td><td style="vertical-align:top;">:</td><td><div>web2py, python, framework</div></td></tr></table></div></td></tr><tr><td style="font-weight:bold;vertical-align:top;">models_to_run</td><td style="vertical-align:top;">:</td><td><div><table><tr><td><div>^\\w+\\.py$</div></td></tr><tr><td><div>^default/\\w+\\.py$</div></td></tr><tr><td><div>^default/view/\\w+\\.py$</div></td></tr></table></div></td></tr><tr><td style="font-weight:bold;vertical-align:top;">postprocessing</td><td style="vertical-align:top;">:</td><td><div><table></table></div></td></tr><tr><td style="font-weight:bold;vertical-align:top;">session_client</td><td style="vertical-align:top;">:</td><td><div>127.0.0.1</div></td></tr><tr><td style="font-weight:bold;vertical-align:top;">session_cookie_compression_level</td><td style="vertical-align:top;">:</td><td><div>None</div></td></tr><tr><td style="font-weight:bold;vertical-align:top;">session_cookie_expires</td><td style="vertical-align:top;">:</td><td><div>None</div></td></tr><tr><td style="font-weight:bold;vertical-align:top;">session_cookie_key</td><td style="vertical-align:top;">:</td><td><div>None</div></td></tr><tr><td style="font-weight:bold;vertical-align:top;">session_data_name</td><td style="vertical-align:top;">:</td><td><div>session_data_seq</div></td></tr><tr><td style="font-weight:bold;vertical-align:top;">session_file</td><td style="vertical-align:top;">:</td><td><div>&lt;open file &#x27;/Users/mzimmerman/Documents/Shahar/CS183proj/web2py/applications/seq/sessions/1f4/0c6/127.0.0.1-0c276721-1cab-4668-aa18-0cf5f79dd653&#x27;, mode &#x27;rb+&#x27; at 0x10a3b3390&gt;</div></td></tr><tr><td style="font-weight:bold;vertical-align:top;">session_filename</td><td style="vertical-align:top;">:</td><td><div>/Users/mzimmerman/Documents/Shahar/CS183proj/web2py/applications/seq/sessions/127.0.0.1-0c276721-1cab-4668-aa18-0cf5f79dd653</div></td></tr><tr><td style="font-weight:bold;vertical-align:top;">session_hash</td><td style="vertical-align:top;">:</td><td><div>dce24ce2ce44615ac521569cdccad604</div></td></tr><tr><td style="font-weight:bold;vertical-align:top;">session_id</td><td style="vertical-align:top;">:</td><td><div>127.0.0.1-0c276721-1cab-4668-aa18-0cf5f79dd653</div></td></tr><tr><td style="font-weight:bold;vertical-align:top;">session_id_name</td><td style="vertical-align:top;">:</td><td><div>session_id_seq</div></td></tr><tr><td style="font-weight:bold;vertical-align:top;">session_locked</td><td style="vertical-align:top;">:</td><td><div>True</div></td></tr><tr><td style="font-weight:bold;vertical-align:top;">session_masterapp</td><td style="vertical-align:top;">:</td><td><div>seq</div></td></tr><tr><td style="font-weight:bold;vertical-align:top;">session_new</td><td style="vertical-align:top;">:</td><td><div>False</div></td></tr><tr><td style="font-weight:bold;vertical-align:top;">session_storage_type</td><td style="vertical-align:top;">:</td><td><div>file</div></td></tr><tr><td style="font-weight:bold;vertical-align:top;">status</td><td style="vertical-align:top;">:</td><td><div>200</div></td></tr><tr><td style="font-weight:bold;vertical-align:top;">subtitle</td><td style="vertical-align:top;">:</td><td><div></div></td></tr><tr><td style="font-weight:bold;vertical-align:top;">title</td><td style="vertical-align:top;">:</td><td><div>Seq</div></td></tr><tr><td style="font-weight:bold;vertical-align:top;">view</td><td style="vertical-align:top;">:</td><td><div>default/view.html</div></td></tr></table></div>'
tRp290
sS'locals'
p291
(dp292
S'self'
p293
S'<gluon.contrib.simplejson.encoder.JSONEncoder object>'
p294
sS'o'
S'datetime.datetime(2015, 3, 12, 21, 42, 7, 604876)'
p295
sssS'traceback'
p296
S'Traceback (most recent call last):\n  File "/Users/mzimmerman/Documents/Shahar/CS183proj/web2py/gluon/restricted.py", line 224, in restricted\n    exec ccode in environment\n  File "/Users/mzimmerman/Documents/Shahar/CS183proj/web2py/applications/seq/controllers/default.py", line 315, in <module>\n  File "/Users/mzimmerman/Documents/Shahar/CS183proj/web2py/gluon/globals.py", line 392, in <lambda>\n    self._caller = lambda f: f()\n  File "/Users/mzimmerman/Documents/Shahar/CS183proj/web2py/applications/seq/controllers/default.py", line 169, in view\n    annotation_list = json.dumps(annotation_list)\n  File "/Users/mzimmerman/Documents/Shahar/CS183proj/web2py/gluon/contrib/simplejson/__init__.py", line 263, in dumps\n    return _default_encoder.encode(obj)\n  File "/Users/mzimmerman/Documents/Shahar/CS183proj/web2py/gluon/contrib/simplejson/encoder.py", line 217, in encode\n    chunks = list(chunks)\n  File "/Users/mzimmerman/Documents/Shahar/CS183proj/web2py/gluon/contrib/simplejson/encoder.py", line 483, in _iterencode\n    for chunk in _iterencode_list(o, _current_indent_level):\n  File "/Users/mzimmerman/Documents/Shahar/CS183proj/web2py/gluon/contrib/simplejson/encoder.py", line 381, in _iterencode_list\n    for chunk in chunks:\n  File "/Users/mzimmerman/Documents/Shahar/CS183proj/web2py/gluon/contrib/simplejson/encoder.py", line 460, in _iterencode_dict\n    for chunk in chunks:\n  File "/Users/mzimmerman/Documents/Shahar/CS183proj/web2py/gluon/contrib/simplejson/encoder.py", line 496, in _iterencode\n    o = _default(o)\n  File "/Users/mzimmerman/Documents/Shahar/CS183proj/web2py/gluon/contrib/simplejson/encoder.py", line 191, in default\n    raise TypeError(repr(o) + " is not JSON serializable")\nTypeError: datetime.datetime(2015, 3, 12, 21, 42, 7, 604876) is not JSON serializable\n'
p297
s.