(dp1
S'output'
p2
S"<type 'exceptions.AttributeError'> 'str' object has no attribute 'sequence_name'"
p3
sS'layer'
p4
S'/Users/christopherlee/Desktop/web2py_osx/web2py/web2py.app/Contents/Resources/applications/sequencemagic/controllers/default.py'
p5
sS'code'
p6
S'# -*- coding: utf-8 -*-\n# this file is released under public domain and you can use without limitations\n\n#########################################################################\n## This is a sample controller\n## - index is the default action of any application\n## - user is required for authentication and authorization\n## - download is for downloading files uploaded in the db (does streaming)\n## - api is an example of Hypermedia API support and access control\n#########################################################################\n\nimport gluon.contrib.simplejson as json\n\ndef index():\n   user = all_descriptors = None\n   header_text = "Latest sequences"\n\n   \n   """Set response menu"""\n   ctrl = \'index\'\n   authorized = False\n   if request.vars.search_seq is not None:\n       header_text = "Search Results"\n       results_list = []\n       if len(request.vars.search_pages) > 0:\n           i=0\n           for page in request.vars.search_pages:\n               results_list.append(A(\'%s\' % request.vars.search_pages[i].sequence_name, _href=URL(\'default\', \'view\', args=request.vars.search_page_ids[i])))\n               i=i+1\n\n   if request.args(0) is not None:\n       ctrl = \'myindex\'\n       header_text = "My sequences"\n       if request.args(0) != \'None\':\n           p = db(db.descriptor_to_user.user_id == request.args(0)).select()\n           for row in p:\n               if row.user_id == auth.user_id:\n                   authorized = True\n           """if p is None:\n               session.flash = T("You need to subscribe")"""\n       else:\n           session.flash = T("You need to login!")\n\n   #response.menu = setResponseMenu(\'index\', True)\n   response.menu = setResponseMenu(ctrl, authorized)\n\n   # TODO: conditional authorization for viewing "My sequences"\n\n   """If passed arg (user id), shows only user\'s sequences (requires auth). Else, shows all sequences"""\n\n   # seqList = db(db.descriptor_to_user.user_id == auth.user_id).select(orderby=db.descriptor_table.seq_id)\n   user = auth.user\n   all_descriptors = db().select(db.descriptor_table.ALL, orderby=~db.descriptor_table.date_created) # For now, return all descriptors in the DB\n   query = None\n   if authorized: #only showing the sequences you created and that you are subscribed without the edit button\n       #all_descriptors = db(db.descriptor_table.creating_user_id == request.args(0)).select(db.descriptor_table.ALL)\n       query = db(db.descriptor_to_user.user_id == request.args(0)).select(db.descriptor_to_user.descriptor_id)\n       #query is to get all the sequence_id subscribed to the user_id\n       \n   if all_descriptors is None:\n      session.flash = T("You have no sequences!")\n   \n  \n   \n   return locals()\n\n@auth.requires_login()\ndef subscribe():\n    checking = db((db.descriptor_to_user.descriptor_id == request.args(0)) & (db.descriptor_to_user.user_id == auth.user_id)).select(db.descriptor_to_user.ALL)\n    if not checking:\n        update_descriptor_to_user(request.args(0))   \n    redirect(URL(\'default\', \'index\'))\n\n@auth.requires_login()\ndef edit():\n    # authorize the user to edit\n    authorized = False\n    sequence_name = \'Unknown sequence\'\n    if request.args(0) is not None:\n       header_text = "You\'re not authorized to edit this sequence"\n       p = db(db.descriptor_table.id == request.args(0)).select().first()\n       if p.creating_user_id == auth.user_id:\n              authorized = True\n              header_text = sequence_name = p.sequence_name\n       else:\n              session.flash = T("You need to login!")\n    else:\n        redirect(URL(\'default\', \'index\'))\n\n    seq_row = file_url = None\n    if authorized:\n        seq_row = db(db.sequences.id == p.seq_id).select().first()\n        if seq_row is not None and seq_row.seq_file_type == \'FASTA\':\n            file_url = URL(\'static\', \'uploads\', args=[seq_row.seq_file_name], scheme=True, host=True)\n        else:\n            session.flash = T("Couldn\'t find a sequence for the given descriptor ID")\n\n    return locals()\n\ndef view():\n   """\n   Allows a user to visualize a particular sequence with it\'s annotations,\n   if any are present. Requires seq they want to see to be passed via URL,\n   as in sequencemagic/view/:descriptor_id\n   """\n   annotationList = sequence_row = seq = seq_type = desc_name = \\\n       desc_description = date_created = desc_author = list_of_subscriptors = \\\n       seq_length = annotation_list = plasmid_name = None\n   found_sequence = False\n   \n   desc_id = request.args(0) or None\n   if desc_id is None:\n       # no descriptor id given\n       return locals()\n\n   desc_row = db(db.descriptor_table.id == desc_id).select().first()\n\n   if desc_row is None:\n       # descriptor doesn\'t exist\n       seq = \'Sequence not found for given descriptor ID\'\n       return locals()\n\n   user_row = db(db.auth_user.id == desc_row.creating_user_id).select().first()\n\n   desc_author = user_row.first_name + " " + user_row.last_name\n   desc_name = desc_row.sequence_name\n   desc_description = desc_row.sequence_description\n   date_created = desc_row.date_created\n   seq_id = desc_row.seq_id\n   \n   # list_of_subscriptors = db((db.descriptor_to_user.descriptor_id == desc_id) & (db.descriptor_to_user.user_id == db.auth_user.id)).select(db.auth_user.first_name, db.auth_user.last_name, db.auth_user.email).as_list()\n   list_of_subscriptors = [\n       {\n           \'first_name\' : \'Shahar\',\n           \'last_name\' : \'Zimmerman\',\n           \'email\' : \'szimmer1@ucsc.edu\'\n       },\n       {\n           \'first_name\' : \'Roger\',\n           \'last_name\' : \'Tester\',\n           \'email\' : \'roger@tester.com\'\n       }\n   ]\n   list_of_subscriptors = json.dumps(list_of_subscriptors)\n\n   sequence_row = db(db.sequences.id == seq_id).select().first()\n   if sequence_row.seq is not None:\n       found_sequence = True\n       seq = sequence_row.seq\n       seq_type = \'text\'\n   elif sequence_row.seq_file_name is not None:\n       found_sequence = True\n       seq = sequence_row.seq_file_name\n       seq_type = sequence_row.seq_file_type\n\n   if seq is None:\n       # sequence info is corrupted/missing\n       seq = \'Sequence info not found\'\n       return locals()\n\n\n   # authorize the user to edit\n   authorized = False\n   if seq is not None:\n      header_text = "You\'re not authorized to edit this sequence"\n      p = db(db.descriptor_table.id == desc_id).select().first()\n      if p.creating_user_id == auth.user_id:\n             authorized = True\n             header_text = sequence_name = p.sequence_name\n             if len(sequence_name.split(" ")) > 1:\n                 plasmid_name = ""\n                 list = sequence_name.split(" ")\n                 for word in list:\n                     plasmid_name += word[0].upper()\n             else:\n                 plasmid_name = sequence_name\n      else:\n             session.flash = T("You need to login!")\n   else:\n       return locals()\n\n   sequence_row = file_url = None\n   if authorized:\n       # get sequence length and annotation data\n       seq_length = len(seq.replace(" ", ""))\n       # annotation_list = db(db.annotation_to_descriptor.descriptor_id == desc_id).select().as_list()\n       annotation_list = [\n           {\n               \'annotation_name\' : \'Test single annotation\',\n               \'annotation_location\' : [20],\n               \'date_created\' : datetime.utcnow().strftime("%m/%d/%y"),\n               \'annotation_description\' : \'A test annotation hard-coded in for now\',\n               \'annotation_sequence\' : \'ACTGACTGACTGACTGACTGACTGACTGACTGACTGACTGACTGACTG\'\n           },\n           {\n               \'annotation_name\' : \'Test multi annotation\',\n               \'annotation_location\' : [130, 200],\n               \'date_created\' : datetime.utcnow().strftime("%m/%d/%y"),\n               \'annotation_description\' : \'A test annotation hard-coded in for now\',\n               \'annotation_sequence\' : \'ACTGACTGACTGACTGACTGACTGACTGACTGACTGACTGACTGACTG\'\n           }\n       ]\n       annotation_list = json.dumps(annotation_list)\n\n   return locals()\n\n   """suscriptions_of_user= db((db.descriptor_to_user.user_id==auth.user_id)&(db.descriptor_to_user.descriptor_id==db.descriptor_table.id)&(db.descriptor_table.seq_id == db.sequences.id)).select(db.descriptor_table.ALL)\n   {{if len(suscriptions_of_user) > 0:}}\n                <ul>Im suscribed to :\n                    {{for p_2 in suscriptions_of_user:}}\n                        <li>{{=p_2.sequence_name}}</li>\n\n                    {{pass}}\n                </ul>\n            {{pass}} THIS IS THE QUERY AND THE PART TO PUT DIRECTLY IN THE VIEW."""\n\n@auth.requires_login()\ndef upload():\n    """Set response menu"""\n    response.menu = setResponseMenu(\'upload\', True)\n\n    categories = ["FASTA", "Plain Sequence"]\n    file_active = True;\n    form = SQLFORM.factory(\n        Field(\'name\', label=\'Sequence name\', required=True),\n        Field(\'file_type\', label = "File Type", requires=IS_IN_SET(categories)),\n        Field(\'sequence_file\', \'upload\', uploadfolder=request.folder+\'/static/uploads\'),\n        Field(\'description\', \'text\')\n    )\n    #form.add_button(\'Enter Sequence Manually\', URL(\'upload\', args=[\'man\']))\n    \n\t#Manual Sequence Entry form\n    if request.args(0)==\'man\':\n        file_active = False;\n        form = SQLFORM.factory(\n            Field(\'name\', label = \'Sequence name\', required = True),\n            Field(\'seqs\', \'text\', requires=IS_NOT_EMPTY()),\n            Field(\'description\', \'text\')\n        )\n        #form.add_button(\'Enter Sequence File\', URL(\'upload\', args=[]))\n\n    if form.process().accepted:\n        session.flash = T("Your form was accepted")\n        if request.args(0)==\'man\':\n            insert = insert_man_sequence(form)\n            descriptor_id = insert[\'desc_id\'] #<-- defined in the models\n            redirect(URL(\'default\', \'index\'))\n     \telse: \n            insert = insert_file_sequence(form)\n            descriptor_id = insert[\'desc_id\'] #<-- defined in the models\n            redirect(URL(\'default\', \'index\'))\n     \n\t #redirect(URL(\'default\', \'view\', vars=dict(sequenceid=seq_id))\n    else:\n        pass\n    return locals()\n\n\n"""This is just to test the tables and probably not how we should do this"""\n@auth.requires_login()\ndef upload_annotation():\n    """Set response menu"""\n    # response.menu = setResponseMenu(\'multiple\', True)\n\n    categories = []\n    for seq in db(db.descriptor_table).select(): #run through seq names\n        """if auth.user.first_name == seq.creating_user_id: #if they match curr users name append them for later\n            categories.append(seq.sequence_name)"""\n        if (seq.creating_user_id == auth.user_id):\n            categories.append(seq.sequence_name)\n\n    form = SQLFORM.factory(\n        Field(\'seq_name\', label=\' Select A Sequence to Annotate\', requires=IS_IN_SET(categories), required=True), # consists of only users own sequences\n        Field(\'annotation_name\', requires=IS_NOT_EMPTY()),\n        Field(\'annotation_position\', \'list:integer\'),\n        Field(\'description\', \'text\')\n    )\n\n    if form.process().accepted:\n        session.flash = T("Your form was accepted")\n        descriptor_id = insert_annotation(form) #<-- defined in the models\n        redirect(URL(\'default\', \'view\', args=[descriptor_id]))\n    else:\n        pass\n    return dict(form=form)\n\n"""Done just needs tweaking based on UI"""\ndef search():\n    search_seq = request.vars.search\n    search_pages = []\n    search_page_ids = []\n    if search_seq is not None:\n        all_pages = db().select(db.descriptor_table.ALL, orderby=db.descriptor_table.sequence_name)\n        for page in all_pages:\n            if (search_seq.lower() in repr(page.sequence_name).lower()):\n                search_page_ids.append(page.id)\n                search_pages.append(page)\n    redirect(URL(\'default\', \'index\', vars=dict(search_seq=search_seq, search_pages=search_pages, search_page_ids=search_page_ids)))\n    # return locals()\n\ndef user():\n    """\n    exposes:\n    http://..../[app]/default/user/login\n    http://..../[app]/default/user/logout\n    http://..../[app]/default/user/register\n    http://..../[app]/default/user/profile\n    http://..../[app]/default/user/retrieve_password\n    http://..../[app]/default/user/change_password\n    http://..../[app]/default/user/manage_users (requires membership in\n    use @auth.requires_login()\n        @auth.requires_membership(\'group name\')\n        @auth.requires_permission(\'read\',\'table name\',record_id)\n    to decorate functions that need access control\n    """\n    return dict(form=auth())\n\n\n@cache.action()\ndef download():\n    """\n    allows downloading of uploaded files\n    http://..../[app]/default/download/[filename]\n    """\n    return response.download(request, db)\n\n\ndef call():\n    """\n    exposes services. for example:\n    http://..../[app]/default/call/jsonrpc\n    decorate with @services.jsonrpc the functions to expose\n    supports xml, json, xmlrpc, jsonrpc, amfrpc, rss, csv\n    """\n    return service()\n\n\n@auth.requires_login() \ndef api():\n    """\n    this is example of API with access control\n    WEB2PY provides Hypermedia API (Collection+JSON) Experimental\n    """\n    from gluon.contrib.hypermedia import Collection\n    rules = {\n        \'<tablename>\': {\'GET\':{},\'POST\':{},\'PUT\':{},\'DELETE\':{}},\n        }\n    return Collection(db).process(request,response,rules)\n\nresponse._vars=response._caller(index)\n'
p7
sS'snapshot'
p8
(dp9
S'exception'
p10
(dp11
S'__hash__'
p12
S"<method-wrapper '__hash__' of exceptions.AttributeError object>"
p13
sS'__setattr__'
p14
S"<method-wrapper '__setattr__' of exceptions.AttributeError object>"
p15
sS'__reduce_ex__'
p16
S'<built-in method __reduce_ex__ of exceptions.AttributeError object>'
p17
sS'__getslice__'
p18
S"<method-wrapper '__getslice__' of exceptions.AttributeError object>"
p19
sS'__getitem__'
p20
S"<method-wrapper '__getitem__' of exceptions.AttributeError object>"
p21
sS'__setstate__'
p22
S'<built-in method __setstate__ of exceptions.AttributeError object>'
p23
sS'args'
p24
S'("\'str\' object has no attribute \'sequence_name\'",)'
p25
sS'__reduce__'
p26
S'<built-in method __reduce__ of exceptions.AttributeError object>'
p27
sS'__str__'
p28
S"<method-wrapper '__str__' of exceptions.AttributeError object>"
p29
sS'__format__'
p30
S'<built-in method __format__ of exceptions.AttributeError object>'
p31
sS'__getattribute__'
p32
S"<method-wrapper '__getattribute__' of exceptions.AttributeError object>"
p33
sS'__class__'
p34
S"<type 'exceptions.AttributeError'>"
p35
sS'__unicode__'
p36
S'<built-in method __unicode__ of exceptions.AttributeError object>'
p37
sS'__delattr__'
p38
S"<method-wrapper '__delattr__' of exceptions.AttributeError object>"
p39
sS'__subclasshook__'
p40
S'<built-in method __subclasshook__ of type object>'
p41
sS'__repr__'
p42
S"<method-wrapper '__repr__' of exceptions.AttributeError object>"
p43
sS'__dict__'
p44
S'{}'
p45
sS'__sizeof__'
p46
S'<built-in method __sizeof__ of exceptions.AttributeError object>'
p47
sS'__doc__'
p48
S"'Attribute not found.'"
p49
sS'__init__'
p50
S"<method-wrapper '__init__' of exceptions.AttributeError object>"
p51
sS'__new__'
p52
S'<built-in method __new__ of type object>'
p53
ssS'evalue'
p54
S"'str' object has no attribute 'sequence_name'"
p55
sS'request'
p56
cgluon.html
XML_unpickle
p57
(S'sUf\x00\x00<div><table><tr><td style="font-weight:bold;vertical-align:top;">ajax</td><td style="vertical-align:top;">:</td><td><div>False</div></td></tr><tr><td style="font-weight:bold;vertical-align:top;">application</td><td style="vertical-align:top;">:</td><td><div>sequencemagic</div></td></tr><tr><td style="font-weight:bold;vertical-align:top;">args</td><td style="vertical-align:top;">:</td><td><div><table></table></div></td></tr><tr><td style="font-weight:bold;vertical-align:top;">cid</td><td style="vertical-align:top;">:</td><td><div>None</div></td></tr><tr><td style="font-weight:bold;vertical-align:top;">client</td><td style="vertical-align:top;">:</td><td><div>127.0.0.1</div></td></tr><tr><td style="font-weight:bold;vertical-align:top;">controller</td><td style="vertical-align:top;">:</td><td><div>default</div></td></tr><tr><td style="font-weight:bold;vertical-align:top;">cookies</td><td style="vertical-align:top;">:</td><td><div><table><tr><td style="font-weight:bold;vertical-align:top;">session_id_admin</td><td style="vertical-align:top;">:</td><td><div>127.0.0.1-26b65d73-b232-4bb8-b321-ad347b06f695<table><tr><td style="font-weight:bold;vertical-align:top;">comment</td><td style="vertical-align:top;">:</td><td><div></div></td></tr><tr><td style="font-weight:bold;vertical-align:top;">domain</td><td style="vertical-align:top;">:</td><td><div></div></td></tr><tr><td style="font-weight:bold;vertical-align:top;">expires</td><td style="vertical-align:top;">:</td><td><div></div></td></tr><tr><td style="font-weight:bold;vertical-align:top;">httponly</td><td style="vertical-align:top;">:</td><td><div></div></td></tr><tr><td style="font-weight:bold;vertical-align:top;">max-age</td><td style="vertical-align:top;">:</td><td><div></div></td></tr><tr><td style="font-weight:bold;vertical-align:top;">path</td><td style="vertical-align:top;">:</td><td><div></div></td></tr><tr><td style="font-weight:bold;vertical-align:top;">secure</td><td style="vertical-align:top;">:</td><td><div></div></td></tr><tr><td style="font-weight:bold;vertical-align:top;">version</td><td style="vertical-align:top;">:</td><td><div></div></td></tr></table></div></td></tr><tr><td style="font-weight:bold;vertical-align:top;">session_id_sequencemagic</td><td style="vertical-align:top;">:</td><td><div>127.0.0.1-def6ac72-7c37-47ca-85a8-9f320cc07865<table><tr><td style="font-weight:bold;vertical-align:top;">comment</td><td style="vertical-align:top;">:</td><td><div></div></td></tr><tr><td style="font-weight:bold;vertical-align:top;">domain</td><td style="vertical-align:top;">:</td><td><div></div></td></tr><tr><td style="font-weight:bold;vertical-align:top;">expires</td><td style="vertical-align:top;">:</td><td><div></div></td></tr><tr><td style="font-weight:bold;vertical-align:top;">httponly</td><td style="vertical-align:top;">:</td><td><div></div></td></tr><tr><td style="font-weight:bold;vertical-align:top;">max-age</td><td style="vertical-align:top;">:</td><td><div></div></td></tr><tr><td style="font-weight:bold;vertical-align:top;">path</td><td style="vertical-align:top;">:</td><td><div></div></td></tr><tr><td style="font-weight:bold;vertical-align:top;">secure</td><td style="vertical-align:top;">:</td><td><div></div></td></tr><tr><td style="font-weight:bold;vertical-align:top;">version</td><td style="vertical-align:top;">:</td><td><div></div></td></tr></table></div></td></tr><tr><td style="font-weight:bold;vertical-align:top;">session_id_welcome</td><td style="vertical-align:top;">:</td><td><div>127.0.0.1-597b2870-8e64-4912-981d-dd2c2e3ccc7e<table><tr><td style="font-weight:bold;vertical-align:top;">comment</td><td style="vertical-align:top;">:</td><td><div></div></td></tr><tr><td style="font-weight:bold;vertical-align:top;">domain</td><td style="vertical-align:top;">:</td><td><div></div></td></tr><tr><td style="font-weight:bold;vertical-align:top;">expires</td><td style="vertical-align:top;">:</td><td><div></div></td></tr><tr><td style="font-weight:bold;vertical-align:top;">httponly</td><td style="vertical-align:top;">:</td><td><div></div></td></tr><tr><td style="font-weight:bold;vertical-align:top;">max-age</td><td style="vertical-align:top;">:</td><td><div></div></td></tr><tr><td style="font-weight:bold;vertical-align:top;">path</td><td style="vertical-align:top;">:</td><td><div></div></td></tr><tr><td style="font-weight:bold;vertical-align:top;">secure</td><td style="vertical-align:top;">:</td><td><div></div></td></tr><tr><td style="font-weight:bold;vertical-align:top;">version</td><td style="vertical-align:top;">:</td><td><div></div></td></tr></table></div></td></tr></table></div></td></tr><tr><td style="font-weight:bold;vertical-align:top;">env</td><td style="vertical-align:top;">:</td><td><div><table><tr><td style="font-weight:bold;vertical-align:top;">HTTP_ACCEPT</td><td style="vertical-align:top;">:</td><td><div>text/html,application/xhtml+xml,application/xml;q=0.9,image/webp,*/*;q=0.8</div></td></tr><tr><td style="font-weight:bold;vertical-align:top;">HTTP_ACCEPT_ENCODING</td><td style="vertical-align:top;">:</td><td><div>gzip, deflate, sdch</div></td></tr><tr><td style="font-weight:bold;vertical-align:top;">HTTP_ACCEPT_LANGUAGE</td><td style="vertical-align:top;">:</td><td><div>en-US,en;q=0.8</div></td></tr><tr><td style="font-weight:bold;vertical-align:top;">HTTP_CACHE_CONTROL</td><td style="vertical-align:top;">:</td><td><div>max-age=0</div></td></tr><tr><td style="font-weight:bold;vertical-align:top;">HTTP_CONNECTION</td><td style="vertical-align:top;">:</td><td><div>keep-alive</div></td></tr><tr><td style="font-weight:bold;vertical-align:top;">HTTP_COOKIE</td><td style="vertical-align:top;">:</td><td><div>session_id_welcome=127.0.0.1-597b2870-8e64-4912-981d-dd2c2e3ccc7e; session_id_sequencemagic=127.0.0.1-def6ac72-7c37-47ca-85a8-9f320cc07865; session_id_admin=127.0.0.1-26b65d73-b232-4bb8-b321-ad347b06f695</div></td></tr><tr><td style="font-weight:bold;vertical-align:top;">HTTP_HOST</td><td style="vertical-align:top;">:</td><td><div>127.0.0.1:8000</div></td></tr><tr><td style="font-weight:bold;vertical-align:top;">HTTP_REFERER</td><td style="vertical-align:top;">:</td><td><div>http://127.0.0.1:8000/sequencemagic/default/index?search_page_ids=1&amp;search_pages=%3CRow+%7B%27seq_id%27%3A+4L%2C+%27sequence_name%27%3A+%27Test+file+1%27%2C+%27sequence_description%27%3A+%27A+test+file+%27%2C+%27date_created%27%3A+datetime.datetime%282015%2C+3%2C+12%2C+15%2C+12%2C+21%29%2C+%27creating_user_id%27%3A+1L%2C+%27id%27%3A+1L%7D%3E&amp;search_seq=file</div></td></tr><tr><td style="font-weight:bold;vertical-align:top;">HTTP_USER_AGENT</td><td style="vertical-align:top;">:</td><td><div>Mozilla/5.0 (Macintosh; Intel Mac OS X 10_6_8) AppleWebKit/537.36 (KHTML, like Gecko) Chrome/41.0.2272.76 Safari/537.36</div></td></tr><tr><td style="font-weight:bold;vertical-align:top;">PATH_INFO</td><td style="vertical-align:top;">:</td><td><div>/sequencemagic/default/index</div></td></tr><tr><td style="font-weight:bold;vertical-align:top;">QUERY_STRING</td><td style="vertical-align:top;">:</td><td><div>search_page_ids=1&amp;search_pages=%3CRow+%7B%27seq_id%27%3A+4L%2C+%27sequence_name%27%3A+%27Test+file+1%27%2C+%27sequence_description%27%3A+%27A+test+file+%27%2C+%27date_created%27%3A+datetime.datetime%282015%2C+3%2C+12%2C+15%2C+12%2C+21%29%2C+%27creating_user_id%27%3A+1L%2C+%27id%27%3A+1L%7D%3E&amp;search_seq=file</div></td></tr><tr><td style="font-weight:bold;vertical-align:top;">REMOTE_ADDR</td><td style="vertical-align:top;">:</td><td><div>127.0.0.1</div></td></tr><tr><td style="font-weight:bold;vertical-align:top;">REMOTE_PORT</td><td style="vertical-align:top;">:</td><td><div>61257</div></td></tr><tr><td style="font-weight:bold;vertical-align:top;">REQUEST_METHOD</td><td style="vertical-align:top;">:</td><td><div>GET</div></td></tr><tr><td style="font-weight:bold;vertical-align:top;">SCRIPT_NAME</td><td style="vertical-align:top;">:</td><td><div></div></td></tr><tr><td style="font-weight:bold;vertical-align:top;">SERVER_NAME</td><td style="vertical-align:top;">:</td><td><div>dhcp-219-23.cruznet.ucsc.edu</div></td></tr><tr><td style="font-weight:bold;vertical-align:top;">SERVER_PORT</td><td style="vertical-align:top;">:</td><td><div>8000</div></td></tr><tr><td style="font-weight:bold;vertical-align:top;">SERVER_PROTOCOL</td><td style="vertical-align:top;">:</td><td><div>HTTP/1.1</div></td></tr><tr><td style="font-weight:bold;vertical-align:top;">SERVER_SOFTWARE</td><td style="vertical-align:top;">:</td><td><div>Rocket 1.2.6</div></td></tr><tr><td style="font-weight:bold;vertical-align:top;">app_folders</td><td style="vertical-align:top;">:</td><td><div>set([&#x27;/Users/christopherlee/Desktop/web2py_osx/web2py/web2py.app/Contents/Resources/applications/admin/&#x27;, &#x27;/Users/christopherlee/Desktop/web2py_osx/web2py/web2py.app/Contents/Resources/applications/sequencemagic/&#x27;, &#x27;/Users/christopherlee/Desktop/web2py_osx/web2py/web2py.app/Contents/Resources/applications/welcome/&#x27;])</div></td></tr><tr><td style="font-weight:bold;vertical-align:top;">applications_parent</td><td style="vertical-align:top;">:</td><td><div>/Users/christopherlee/Desktop/web2py_osx/web2py/web2py.app/Contents/Resources</div></td></tr><tr><td style="font-weight:bold;vertical-align:top;">cmd_args</td><td style="vertical-align:top;">:</td><td><div><table></table></div></td></tr><tr><td style="font-weight:bold;vertical-align:top;">cmd_options</td><td style="vertical-align:top;">:</td><td><div>&lt;Values at 0x113e5fea8: {&#x27;verbose&#x27;: False, &#x27;ip&#x27;: &#x27;127.0.0.1&#x27;, &#x27;debuglevel&#x27;: 30, &#x27;with_scheduler&#x27;: False, &#x27;ips&#x27;: [&#x27;169.233.219.23&#x27;], &#x27;shutdown_timeout&#x27;: 5, &#x27;taskbar&#x27;: False, &#x27;with_coverage&#x27;: False, &#x27;scheduler_groups&#x27;: None, &#x27;port&#x27;: 8000, &#x27;maxthreads&#x27;: None, &#x27;softcron&#x27;: False, &#x27;server_name&#x27;: &#x27;dhcp-219-23.cruznet.ucsc.edu&#x27;, &#x27;bpython&#x27;: False, &#x27;nogui&#x27;: False, &#x27;pid_filename&#x27;: &#x27;httpserver.pid&#x27;, &#x27;extcron&#x27;: False, &#x27;runcron&#x27;: False, &#x27;run_system_tests&#x27;: False, &#x27;test&#x27;: None, &#x27;folder&#x27;: &#x27;/Users/christopherlee/Desktop/web2py_osx/web2py/web2py.app/Contents/Resources&#x27;, &#x27;config&#x27;: &#x27;&#x27;, &#x27;minthreads&#x27;: None, &#x27;shell&#x27;: None, &#x27;run&#x27;: &#x27;&#x27;, &#x27;log_filename&#x27;: &#x27;httpserver.log&#x27;, &#x27;profiler_dir&#x27;: None, &#x27;args&#x27;: [&#x27;&#x27;], &#x27;socket_timeout&#x27;: 5, &#x27;ssl_ca_certificate&#x27;: None, &#x27;scheduler&#x27;: None, &#x27;interfaces&#x27;: None, &#x27;ssl_private_key&#x27;: &#x27;&#x27;, &#x27;gae&#x27;: None, &#x27;password&#x27;: &#x27;&lt;ask&gt;&#x27;, &#x27;request_queue_size&#x27;: 5, &#x27;ssl_certificate&#x27;: &#x27;&#x27;, &#x27;cronjob&#x27;: False, &#x27;numthreads&#x27;: None, &#x27;quiet&#x27;: False, &#x27;import_models&#x27;: False, &#x27;timeout&#x27;: 10, &#x27;plain&#x27;: False, &#x27;nobanner&#x27;: False}&gt;</div></td></tr><tr><td style="font-weight:bold;vertical-align:top;">db_sessions</td><td style="vertical-align:top;">:</td><td><div>set([])</div></td></tr><tr><td style="font-weight:bold;vertical-align:top;">debugging</td><td style="vertical-align:top;">:</td><td><div>False</div></td></tr><tr><td style="font-weight:bold;vertical-align:top;">gluon_parent</td><td style="vertical-align:top;">:</td><td><div>/Users/christopherlee/Desktop/web2py_osx/web2py/web2py.app/Contents/Resources</div></td></tr><tr><td style="font-weight:bold;vertical-align:top;">http_accept</td><td style="vertical-align:top;">:</td><td><div>text/html,application/xhtml+xml,application/xml;q=0.9,image/webp,*/*;q=0.8</div></td></tr><tr><td style="font-weight:bold;vertical-align:top;">http_accept_encoding</td><td style="vertical-align:top;">:</td><td><div>gzip, deflate, sdch</div></td></tr><tr><td style="font-weight:bold;vertical-align:top;">http_accept_language</td><td style="vertical-align:top;">:</td><td><div>en-US,en;q=0.8</div></td></tr><tr><td style="font-weight:bold;vertical-align:top;">http_cache_control</td><td style="vertical-align:top;">:</td><td><div>max-age=0</div></td></tr><tr><td style="font-weight:bold;vertical-align:top;">http_connection</td><td style="vertical-align:top;">:</td><td><div>keep-alive</div></td></tr><tr><td style="font-weight:bold;vertical-align:top;">http_cookie</td><td style="vertical-align:top;">:</td><td><div>session_id_welcome=127.0.0.1-597b2870-8e64-4912-981d-dd2c2e3ccc7e; session_id_sequencemagic=127.0.0.1-def6ac72-7c37-47ca-85a8-9f320cc07865; session_id_admin=127.0.0.1-26b65d73-b232-4bb8-b321-ad347b06f695</div></td></tr><tr><td style="font-weight:bold;vertical-align:top;">http_host</td><td style="vertical-align:top;">:</td><td><div>127.0.0.1:8000</div></td></tr><tr><td style="font-weight:bold;vertical-align:top;">http_referer</td><td style="vertical-align:top;">:</td><td><div>http://127.0.0.1:8000/sequencemagic/default/index?search_page_ids=1&amp;search_pages=%3CRow+%7B%27seq_id%27%3A+4L%2C+%27sequence_name%27%3A+%27Test+file+1%27%2C+%27sequence_description%27%3A+%27A+test+file+%27%2C+%27date_created%27%3A+datetime.datetime%282015%2C+3%2C+12%2C+15%2C+12%2C+21%29%2C+%27creating_user_id%27%3A+1L%2C+%27id%27%3A+1L%7D%3E&amp;search_seq=file</div></td></tr><tr><td style="font-weight:bold;vertical-align:top;">http_user_agent</td><td style="vertical-align:top;">:</td><td><div>Mozilla/5.0 (Macintosh; Intel Mac OS X 10_6_8) AppleWebKit/537.36 (KHTML, like Gecko) Chrome/41.0.2272.76 Safari/537.36</div></td></tr><tr><td style="font-weight:bold;vertical-align:top;">is_jython</td><td style="vertical-align:top;">:</td><td><div>False</div></td></tr><tr><td style="font-weight:bold;vertical-align:top;">is_pypy</td><td style="vertical-align:top;">:</td><td><div>False</div></td></tr><tr><td style="font-weight:bold;vertical-align:top;">is_source</td><td style="vertical-align:top;">:</td><td><div>True</div></td></tr><tr><td style="font-weight:bold;vertical-align:top;">local_hosts</td><td style="vertical-align:top;">:</td><td><div><table><tr><td><div>169.233.219.23</div></td></tr><tr><td><div>::1</div></td></tr><tr><td><div>dhcp-219-23.cruznet.ucsc.edu</div></td></tr><tr><td><div>::ffff:127.0.0.1</div></td></tr><tr><td><div>127.0.0.1</div></td></tr></table></div></td></tr><tr><td style="font-weight:bold;vertical-align:top;">path_info</td><td style="vertical-align:top;">:</td><td><div>/sequencemagic/default/index</div></td></tr><tr><td style="font-weight:bold;vertical-align:top;">query_string</td><td style="vertical-align:top;">:</td><td><div>search_page_ids=1&amp;search_pages=%3CRow+%7B%27seq_id%27%3A+4L%2C+%27sequence_name%27%3A+%27Test+file+1%27%2C+%27sequence_description%27%3A+%27A+test+file+%27%2C+%27date_created%27%3A+datetime.datetime%282015%2C+3%2C+12%2C+15%2C+12%2C+21%29%2C+%27creating_user_id%27%3A+1L%2C+%27id%27%3A+1L%7D%3E&amp;search_seq=file</div></td></tr><tr><td style="font-weight:bold;vertical-align:top;">remote_addr</td><td style="vertical-align:top;">:</td><td><div>127.0.0.1</div></td></tr><tr><td style="font-weight:bold;vertical-align:top;">remote_port</td><td style="vertical-align:top;">:</td><td><div>61257</div></td></tr><tr><td style="font-weight:bold;vertical-align:top;">request_method</td><td style="vertical-align:top;">:</td><td><div>GET</div></td></tr><tr><td style="font-weight:bold;vertical-align:top;">request_uri</td><td style="vertical-align:top;">:</td><td><div>/sequencemagic/default/index?search_page_ids=1&amp;search_pages=%3CRow+%7B%27seq_id%27%3A+4L%2C+%27sequence_name%27%3A+%27Test+file+1%27%2C+%27sequence_description%27%3A+%27A+test+file+%27%2C+%27date_created%27%3A+datetime.datetime%282015%2C+3%2C+12%2C+15%2C+12%2C+21%29%2C+%27creating_user_id%27%3A+1L%2C+%27id%27%3A+1L%7D%3E&amp;search_seq=file</div></td></tr><tr><td style="font-weight:bold;vertical-align:top;">script_name</td><td style="vertical-align:top;">:</td><td><div></div></td></tr><tr><td style="font-weight:bold;vertical-align:top;">server_name</td><td style="vertical-align:top;">:</td><td><div>dhcp-219-23.cruznet.ucsc.edu</div></td></tr><tr><td style="font-weight:bold;vertical-align:top;">server_port</td><td style="vertical-align:top;">:</td><td><div>8000</div></td></tr><tr><td style="font-weight:bold;vertical-align:top;">server_protocol</td><td style="vertical-align:top;">:</td><td><div>HTTP/1.1</div></td></tr><tr><td style="font-weight:bold;vertical-align:top;">server_software</td><td style="vertical-align:top;">:</td><td><div>Rocket 1.2.6</div></td></tr><tr><td style="font-weight:bold;vertical-align:top;">web2py_path</td><td style="vertical-align:top;">:</td><td><div>/Users/christopherlee/Desktop/web2py_osx/web2py/web2py.app/Contents/Resources</div></td></tr><tr><td style="font-weight:bold;vertical-align:top;">web2py_version</td><td style="vertical-align:top;">:</td><td><div>2.9.11-stable+timestamp.2014.09.15.23.35.11</div></td></tr><tr><td style="font-weight:bold;vertical-align:top;">wsgi.errors</td><td style="vertical-align:top;">:</td><td><div>&lt;open file &#x27;&lt;stderr&gt;&#x27;, mode &#x27;w&#x27; at 0x1005c9270&gt;</div></td></tr><tr><td style="font-weight:bold;vertical-align:top;">wsgi.file_wrapper</td><td style="vertical-align:top;">:</td><td><div>&lt;class wsgiref.util.FileWrapper at 0x113e10328&gt;</div></td></tr><tr><td style="font-weight:bold;vertical-align:top;">wsgi.input</td><td style="vertical-align:top;">:</td><td><div>&lt;socket._fileobject object at 0x116d90650&gt;</div></td></tr><tr><td style="font-weight:bold;vertical-align:top;">wsgi.multiprocess</td><td style="vertical-align:top;">:</td><td><div>False</div></td></tr><tr><td style="font-weight:bold;vertical-align:top;">wsgi.multithread</td><td style="vertical-align:top;">:</td><td><div>True</div></td></tr><tr><td style="font-weight:bold;vertical-align:top;">wsgi.run_once</td><td style="vertical-align:top;">:</td><td><div>False</div></td></tr><tr><td style="font-weight:bold;vertical-align:top;">wsgi.url_scheme</td><td style="vertical-align:top;">:</td><td><div>http</div></td></tr><tr><td style="font-weight:bold;vertical-align:top;">wsgi.version</td><td style="vertical-align:top;">:</td><td><div><table><tr><td><div>1</div></td></tr><tr><td><div>0</div></td></tr></table></div></td></tr><tr><td style="font-weight:bold;vertical-align:top;">wsgi_errors</td><td style="vertical-align:top;">:</td><td><div>&lt;open file &#x27;&lt;stderr&gt;&#x27;, mode &#x27;w&#x27; at 0x1005c9270&gt;</div></td></tr><tr><td style="font-weight:bold;vertical-align:top;">wsgi_file_wrapper</td><td style="vertical-align:top;">:</td><td><div>&lt;class wsgiref.util.FileWrapper at 0x113e10328&gt;</div></td></tr><tr><td style="font-weight:bold;vertical-align:top;">wsgi_input</td><td style="vertical-align:top;">:</td><td><div>&lt;socket._fileobject object at 0x116d90650&gt;</div></td></tr><tr><td style="font-weight:bold;vertical-align:top;">wsgi_multiprocess</td><td style="vertical-align:top;">:</td><td><div>False</div></td></tr><tr><td style="font-weight:bold;vertical-align:top;">wsgi_multithread</td><td style="vertical-align:top;">:</td><td><div>True</div></td></tr><tr><td style="font-weight:bold;vertical-align:top;">wsgi_run_once</td><td style="vertical-align:top;">:</td><td><div>False</div></td></tr><tr><td style="font-weight:bold;vertical-align:top;">wsgi_url_scheme</td><td style="vertical-align:top;">:</td><td><div>http</div></td></tr><tr><td style="font-weight:bold;vertical-align:top;">wsgi_version</td><td style="vertical-align:top;">:</td><td><div><table><tr><td><div>1</div></td></tr><tr><td><div>0</div></td></tr></table></div></td></tr></table></div></td></tr><tr><td style="font-weight:bold;vertical-align:top;">extension</td><td style="vertical-align:top;">:</td><td><div>html</div></td></tr><tr><td style="font-weight:bold;vertical-align:top;">folder</td><td style="vertical-align:top;">:</td><td><div>/Users/christopherlee/Desktop/web2py_osx/web2py/web2py.app/Contents/Resources/applications/sequencemagic/</div></td></tr><tr><td style="font-weight:bold;vertical-align:top;">function</td><td style="vertical-align:top;">:</td><td><div>index</div></td></tr><tr><td style="font-weight:bold;vertical-align:top;">global_settings</td><td style="vertical-align:top;">:</td><td><div><table><tr><td style="font-weight:bold;vertical-align:top;">app_folders</td><td style="vertical-align:top;">:</td><td><div>set([&#x27;/Users/christopherlee/Desktop/web2py_osx/web2py/web2py.app/Contents/Resources/applications/admin/&#x27;, &#x27;/Users/christopherlee/Desktop/web2py_osx/web2py/web2py.app/Contents/Resources/applications/sequencemagic/&#x27;, &#x27;/Users/christopherlee/Desktop/web2py_osx/web2py/web2py.app/Contents/Resources/applications/welcome/&#x27;])</div></td></tr><tr><td style="font-weight:bold;vertical-align:top;">applications_parent</td><td style="vertical-align:top;">:</td><td><div>/Users/christopherlee/Desktop/web2py_osx/web2py/web2py.app/Contents/Resources</div></td></tr><tr><td style="font-weight:bold;vertical-align:top;">cmd_args</td><td style="vertical-align:top;">:</td><td><div><table></table></div></td></tr><tr><td style="font-weight:bold;vertical-align:top;">cmd_options</td><td style="vertical-align:top;">:</td><td><div>&lt;Values at 0x113e5fea8: {&#x27;verbose&#x27;: False, &#x27;ip&#x27;: &#x27;127.0.0.1&#x27;, &#x27;debuglevel&#x27;: 30, &#x27;with_scheduler&#x27;: False, &#x27;ips&#x27;: [&#x27;169.233.219.23&#x27;], &#x27;shutdown_timeout&#x27;: 5, &#x27;taskbar&#x27;: False, &#x27;with_coverage&#x27;: False, &#x27;scheduler_groups&#x27;: None, &#x27;port&#x27;: 8000, &#x27;maxthreads&#x27;: None, &#x27;softcron&#x27;: False, &#x27;server_name&#x27;: &#x27;dhcp-219-23.cruznet.ucsc.edu&#x27;, &#x27;bpython&#x27;: False, &#x27;nogui&#x27;: False, &#x27;pid_filename&#x27;: &#x27;httpserver.pid&#x27;, &#x27;extcron&#x27;: False, &#x27;runcron&#x27;: False, &#x27;run_system_tests&#x27;: False, &#x27;test&#x27;: None, &#x27;folder&#x27;: &#x27;/Users/christopherlee/Desktop/web2py_osx/web2py/web2py.app/Contents/Resources&#x27;, &#x27;config&#x27;: &#x27;&#x27;, &#x27;minthreads&#x27;: None, &#x27;shell&#x27;: None, &#x27;run&#x27;: &#x27;&#x27;, &#x27;log_filename&#x27;: &#x27;httpserver.log&#x27;, &#x27;profiler_dir&#x27;: None, &#x27;args&#x27;: [&#x27;&#x27;], &#x27;socket_timeout&#x27;: 5, &#x27;ssl_ca_certificate&#x27;: None, &#x27;scheduler&#x27;: None, &#x27;interfaces&#x27;: None, &#x27;ssl_private_key&#x27;: &#x27;&#x27;, &#x27;gae&#x27;: None, &#x27;password&#x27;: &#x27;&lt;ask&gt;&#x27;, &#x27;request_queue_size&#x27;: 5, &#x27;ssl_certificate&#x27;: &#x27;&#x27;, &#x27;cronjob&#x27;: False, &#x27;numthreads&#x27;: None, &#x27;quiet&#x27;: False, &#x27;import_models&#x27;: False, &#x27;timeout&#x27;: 10, &#x27;plain&#x27;: False, &#x27;nobanner&#x27;: False}&gt;</div></td></tr><tr><td style="font-weight:bold;vertical-align:top;">db_sessions</td><td style="vertical-align:top;">:</td><td><div>set([])</div></td></tr><tr><td style="font-weight:bold;vertical-align:top;">debugging</td><td style="vertical-align:top;">:</td><td><div>False</div></td></tr><tr><td style="font-weight:bold;vertical-align:top;">gluon_parent</td><td style="vertical-align:top;">:</td><td><div>/Users/christopherlee/Desktop/web2py_osx/web2py/web2py.app/Contents/Resources</div></td></tr><tr><td style="font-weight:bold;vertical-align:top;">is_jython</td><td style="vertical-align:top;">:</td><td><div>False</div></td></tr><tr><td style="font-weight:bold;vertical-align:top;">is_pypy</td><td style="vertical-align:top;">:</td><td><div>False</div></td></tr><tr><td style="font-weight:bold;vertical-align:top;">is_source</td><td style="vertical-align:top;">:</td><td><div>True</div></td></tr><tr><td style="font-weight:bold;vertical-align:top;">local_hosts</td><td style="vertical-align:top;">:</td><td><div><table><tr><td><div>169.233.219.23</div></td></tr><tr><td><div>::1</div></td></tr><tr><td><div>dhcp-219-23.cruznet.ucsc.edu</div></td></tr><tr><td><div>::ffff:127.0.0.1</div></td></tr><tr><td><div>127.0.0.1</div></td></tr></table></div></td></tr><tr><td style="font-weight:bold;vertical-align:top;">web2py_version</td><td style="vertical-align:top;">:</td><td><div>2.9.11-stable+timestamp.2014.09.15.23.35.11</div></td></tr></table></div></td></tr><tr><td style="font-weight:bold;vertical-align:top;">is_https</td><td style="vertical-align:top;">:</td><td><div>False</div></td></tr><tr><td style="font-weight:bold;vertical-align:top;">is_local</td><td style="vertical-align:top;">:</td><td><div>True</div></td></tr><tr><td style="font-weight:bold;vertical-align:top;">is_restful</td><td style="vertical-align:top;">:</td><td><div>False</div></td></tr><tr><td style="font-weight:bold;vertical-align:top;">is_sheduler</td><td style="vertical-align:top;">:</td><td><div>None</div></td></tr><tr><td style="font-weight:bold;vertical-align:top;">is_shell</td><td style="vertical-align:top;">:</td><td><div>None</div></td></tr><tr><td style="font-weight:bold;vertical-align:top;">now</td><td style="vertical-align:top;">:</td><td><div>datetime.datetime(2015, 3, 12, 19, 39, 8, 653398)</div></td></tr><tr><td style="font-weight:bold;vertical-align:top;">raw_args</td><td style="vertical-align:top;">:</td><td><div></div></td></tr><tr><td style="font-weight:bold;vertical-align:top;">raw_extension</td><td style="vertical-align:top;">:</td><td><div>None</div></td></tr><tr><td style="font-weight:bold;vertical-align:top;">url</td><td style="vertical-align:top;">:</td><td><div>/sequencemagic/default/index</div></td></tr><tr><td style="font-weight:bold;vertical-align:top;">utcnow</td><td style="vertical-align:top;">:</td><td><div>datetime.datetime(2015, 3, 13, 2, 39, 8, 653407)</div></td></tr><tr><td style="font-weight:bold;vertical-align:top;">uuid</td><td style="vertical-align:top;">:</td><td><div>sequencemagic/127.0.0.1.2015-03-12.19-39-08.f997e403-30d2-47cb-a747-5ebf4609f2db</div></td></tr><tr><td style="font-weight:bold;vertical-align:top;">wsgi</td><td style="vertical-align:top;">:</td><td><div>&lt;gluon.main.LazyWSGI object at 0x11a4ec710&gt;</div></td></tr></table></div>'
tRp58
sS'frames'
p59
(lp60
(dp61
S'file'
p62
S'/Users/christopherlee/Desktop/web2py_osx/web2py/web2py.app/Contents/Resources/gluon/restricted.py'
p63
sS'dump'
p64
(dp65
sS'lnum'
p66
I224
sS'lines'
p67
(dp68
I224
S'        exec ccode in environment'
p69
sI225
S'    except HTTP:'
p70
sI226
S'        raise'
p71
sI227
S'    except RestrictedError:'
p72
sI228
S'        # do not encapsulate (obfuscate) the original RestrictedError'
p73
sI219
S'    try:'
p74
sI220
S'        if isinstance(code, types.CodeType):'
p75
sI221
S'            ccode = code'
p76
sI222
S'        else:'
p77
sI223
S'            ccode = compile2(code, layer)'
p78
ssS'call'
p79
S"(code='# -*- coding: utf-8 -*-\\n# this file is released ...e,rules)\\n\\nresponse._vars=response._caller(index)\\n', environment={'A': <class 'gluon.html.A'>, 'ANY_OF': <class 'gluon.validators.ANY_OF'>, 'ASSIGNJS': <function ASSIGNJS>, 'Auth': <class 'gluon.tools.Auth'>, 'B': <class 'gluon.html.B'>, 'BEAUTIFY': <class 'gluon.html.BEAUTIFY'>, 'BODY': <class 'gluon.html.BODY'>, 'BR': <class 'gluon.html.BR'>, 'BUTTON': <class 'gluon.html.BUTTON'>, 'CAT': <class 'gluon.html.CAT'>, ...}, layer='/Users/christopherlee/Desktop/web2py_osx/web2py/...applications/sequencemagic/controllers/default.py')"
p80
sS'func'
p81
S'restricted'
p82
sa(dp83
g62
S'/Users/christopherlee/Desktop/web2py_osx/web2py/web2py.app/Contents/Resources/applications/sequencemagic/controllers/default.py'
p84
sg64
(dp85
sg66
I350
sg67
(dp86
I339
S'def api():'
p87
sI340
S'    """'
p88
sI341
S'    this is example of API with access control'
p89
sI342
S'    WEB2PY provides Hypermedia API (Collection+JSON) Experimental'
p90
sI343
S'    """'
p91
sI344
S'    from gluon.contrib.hypermedia import Collection'
p92
sI345
S'    rules = {'
p93
sI346
S"        '<tablename>': {'GET':{},'POST':{},'PUT':{},'DELETE':{}},"
p94
sI347
S'        }'
p95
sI348
S'    return Collection(db).process(request,response,rules)'
p96
ssg79
S'()'
p97
sg81
S'<module>'
p98
sa(dp99
g62
S'/Users/christopherlee/Desktop/web2py_osx/web2py/web2py.app/Contents/Resources/gluon/globals.py'
p100
sg64
(dp101
sg66
I392
sg67
(dp102
I387
S"        self.flash = ''            # used by the default view layout"
p103
sI388
S'        self.meta = Storage()      # used by web2py_ajax.html'
p104
sI389
S'        self.menu = []             # used by the default view layout'
p105
sI390
S'        self.files = []            # used by web2py_ajax.html'
p106
sI391
S'        self._vars = None'
p107
sI392
S'        self._caller = lambda f: f()'
p108
sI393
S'        self._view_environment = None'
p109
sI394
S'        self._custom_commit = None'
p110
sI395
S'        self._custom_rollback = None'
p111
sI396
S"        self.generic_patterns = ['*']"
p112
ssg79
S'(f=<function index>)'
p113
sg81
S'<lambda>'
p114
sa(dp115
g62
S'/Users/christopherlee/Desktop/web2py_osx/web2py/web2py.app/Contents/Resources/applications/sequencemagic/controllers/default.py'
p116
sg64
(dp117
sg66
I28
sg67
(dp118
I32
S"       ctrl = 'myindex'"
p119
sI23
S'       header_text = "Search Results"'
p120
sI24
S'       results_list = []'
p121
sI25
S'       if len(request.vars.search_pages) > 0:'
p122
sI26
S'           i=0'
p123
sI27
S'           for page in request.vars.search_pages:'
p124
sI28
S"               results_list.append(A('%s' % request.vars.search_pages[i].sequence_name, _href=URL('default', 'view', args=request.vars.search_page_ids[i])))"
p125
sI29
S'               i=i+1'
p126
sI30
S''
sI31
S'   if request.args(0) is not None:'
p127
ssg79
S'()'
p128
sg81
S'index'
p129
sasS'pyver'
p130
S'Python 2.7.3: /Users/christopherlee/Desktop/web2py_osx/web2py/web2py.app/Contents/MacOS/python (prefix: /Users/christopherlee/Desktop/web2py_osx/web2py/web2py.app/Contents/Resources)'
p131
sS'session'
p132
g57
(S's\x85\t\x00\x00<div><table><tr><td style="font-weight:bold;vertical-align:top;">auth</td><td style="vertical-align:top;">:</td><td><div><table><tr><td style="font-weight:bold;vertical-align:top;">expiration</td><td style="vertical-align:top;">:</td><td><div>3600</div></td></tr><tr><td style="font-weight:bold;vertical-align:top;">hmac_key</td><td style="vertical-align:top;">:</td><td><div>fd7a6690-b96d-4905-8c22-7e2a36d604ee</div></td></tr><tr><td style="font-weight:bold;vertical-align:top;">last_visit</td><td style="vertical-align:top;">:</td><td><div>datetime.datetime(2015, 3, 12, 19, 33, 34, 581561)</div></td></tr><tr><td style="font-weight:bold;vertical-align:top;">user</td><td style="vertical-align:top;">:</td><td><div><table><tr><td style="font-weight:bold;vertical-align:top;">email</td><td style="vertical-align:top;">:</td><td><div>chmalee@ucsc.edu</div></td></tr><tr><td style="font-weight:bold;vertical-align:top;">first_name</td><td style="vertical-align:top;">:</td><td><div>Chris</div></td></tr><tr><td style="font-weight:bold;vertical-align:top;">id</td><td style="vertical-align:top;">:</td><td><div>2L</div></td></tr><tr><td style="font-weight:bold;vertical-align:top;">last_name</td><td style="vertical-align:top;">:</td><td><div>Lee</div></td></tr><tr><td style="font-weight:bold;vertical-align:top;">registration_id</td><td style="vertical-align:top;">:</td><td><div></div></td></tr><tr><td style="font-weight:bold;vertical-align:top;">registration_key</td><td style="vertical-align:top;">:</td><td><div></div></td></tr><tr><td style="font-weight:bold;vertical-align:top;">reset_password_key</td><td style="vertical-align:top;">:</td><td><div></div></td></tr></table></div></td></tr><tr><td style="font-weight:bold;vertical-align:top;">user_groups</td><td style="vertical-align:top;">:</td><td><div><table><tr><td style="font-weight:bold;vertical-align:top;">2</td><td style="vertical-align:top;">:</td><td><div>user_2</div></td></tr></table></div></td></tr></table></div></td></tr><tr><td style="font-weight:bold;vertical-align:top;">flash</td><td style="vertical-align:top;">:</td><td><div>None</div></td></tr><tr><td style="font-weight:bold;vertical-align:top;">last_orderby</td><td style="vertical-align:top;">:</td><td><div>None</div></td></tr><tr><td style="font-weight:bold;vertical-align:top;">last_query</td><td style="vertical-align:top;">:</td><td><div>db.descriptor_to_user.id&gt;6</div></td></tr></table></div>'
tRp133
sS'etype'
p134
S"<type 'exceptions.AttributeError'>"
p135
sS'date'
p136
S'Thu Mar 12 19:39:08 2015'
p137
sS'response'
p138
g57
(S's\xc3\x1c\x00\x00<div><table><tr><td style="font-weight:bold;vertical-align:top;">body</td><td style="vertical-align:top;">:</td><td><div>&lt;cStringIO.StringO object at 0x11a1ee8f0&gt;</div></td></tr><tr><td style="font-weight:bold;vertical-align:top;">cookies</td><td style="vertical-align:top;">:</td><td><div><table><tr><td style="font-weight:bold;vertical-align:top;">session_id_sequencemagic</td><td style="vertical-align:top;">:</td><td><div>127.0.0.1-def6ac72-7c37-47ca-85a8-9f320cc07865<table><tr><td style="font-weight:bold;vertical-align:top;">comment</td><td style="vertical-align:top;">:</td><td><div></div></td></tr><tr><td style="font-weight:bold;vertical-align:top;">domain</td><td style="vertical-align:top;">:</td><td><div></div></td></tr><tr><td style="font-weight:bold;vertical-align:top;">expires</td><td style="vertical-align:top;">:</td><td><div></div></td></tr><tr><td style="font-weight:bold;vertical-align:top;">httponly</td><td style="vertical-align:top;">:</td><td><div></div></td></tr><tr><td style="font-weight:bold;vertical-align:top;">max-age</td><td style="vertical-align:top;">:</td><td><div></div></td></tr><tr><td style="font-weight:bold;vertical-align:top;">path</td><td style="vertical-align:top;">:</td><td><div>/</div></td></tr><tr><td style="font-weight:bold;vertical-align:top;">secure</td><td style="vertical-align:top;">:</td><td><div></div></td></tr><tr><td style="font-weight:bold;vertical-align:top;">version</td><td style="vertical-align:top;">:</td><td><div></div></td></tr></table></div></td></tr></table></div></td></tr><tr><td style="font-weight:bold;vertical-align:top;">delimiters</td><td style="vertical-align:top;">:</td><td><div><table><tr><td><div>{{</div></td></tr><tr><td><div>}}</div></td></tr></table></div></td></tr><tr><td style="font-weight:bold;vertical-align:top;">files</td><td style="vertical-align:top;">:</td><td><div><table></table></div></td></tr><tr><td style="font-weight:bold;vertical-align:top;">flash</td><td style="vertical-align:top;">:</td><td><div></div></td></tr><tr><td style="font-weight:bold;vertical-align:top;">form_label_separator</td><td style="vertical-align:top;">:</td><td><div>: </div></td></tr><tr><td style="font-weight:bold;vertical-align:top;">formstyle</td><td style="vertical-align:top;">:</td><td><div>table3cols</div></td></tr><tr><td style="font-weight:bold;vertical-align:top;">generic_patterns</td><td style="vertical-align:top;">:</td><td><div><table><tr><td><div>*</div></td></tr></table></div></td></tr><tr><td style="font-weight:bold;vertical-align:top;">google_analytics_id</td><td style="vertical-align:top;">:</td><td><div>None</div></td></tr><tr><td style="font-weight:bold;vertical-align:top;">headers</td><td style="vertical-align:top;">:</td><td><div><table><tr><td style="font-weight:bold;vertical-align:top;">X-Powered-By</td><td style="vertical-align:top;">:</td><td><div>web2py</div></td></tr></table></div></td></tr><tr><td style="font-weight:bold;vertical-align:top;">logo</td><td style="vertical-align:top;">:</td><td><div><a class="brand" href="http://www.web2py.com/"><b>web<span>2</span>py</b>&trade;&nbsp;</a></div></td></tr><tr><td style="font-weight:bold;vertical-align:top;">menu</td><td style="vertical-align:top;">:</td><td><div><table></table></div></td></tr><tr><td style="font-weight:bold;vertical-align:top;">meta</td><td style="vertical-align:top;">:</td><td><div><table><tr><td style="font-weight:bold;vertical-align:top;">author</td><td style="vertical-align:top;">:</td><td><div>Your Name &lt;you@example.com&gt;</div></td></tr><tr><td style="font-weight:bold;vertical-align:top;">generator</td><td style="vertical-align:top;">:</td><td><div>Web2py Web Framework</div></td></tr><tr><td style="font-weight:bold;vertical-align:top;">keywords</td><td style="vertical-align:top;">:</td><td><div>web2py, python, framework</div></td></tr></table></div></td></tr><tr><td style="font-weight:bold;vertical-align:top;">models_to_run</td><td style="vertical-align:top;">:</td><td><div><table><tr><td><div>^\\w+\\.py$</div></td></tr><tr><td><div>^default/\\w+\\.py$</div></td></tr><tr><td><div>^default/index/\\w+\\.py$</div></td></tr></table></div></td></tr><tr><td style="font-weight:bold;vertical-align:top;">postprocessing</td><td style="vertical-align:top;">:</td><td><div><table></table></div></td></tr><tr><td style="font-weight:bold;vertical-align:top;">session_client</td><td style="vertical-align:top;">:</td><td><div>127.0.0.1</div></td></tr><tr><td style="font-weight:bold;vertical-align:top;">session_cookie_compression_level</td><td style="vertical-align:top;">:</td><td><div>None</div></td></tr><tr><td style="font-weight:bold;vertical-align:top;">session_cookie_expires</td><td style="vertical-align:top;">:</td><td><div>None</div></td></tr><tr><td style="font-weight:bold;vertical-align:top;">session_cookie_key</td><td style="vertical-align:top;">:</td><td><div>None</div></td></tr><tr><td style="font-weight:bold;vertical-align:top;">session_data_name</td><td style="vertical-align:top;">:</td><td><div>session_data_sequencemagic</div></td></tr><tr><td style="font-weight:bold;vertical-align:top;">session_file</td><td style="vertical-align:top;">:</td><td><div>&lt;open file &#x27;/Users/christopherlee/Desktop/web2py_osx/web2py/web2py.app/Contents/Resources/applications/sequencemagic/sessions/12e/1f7/127.0.0.1-def6ac72-7c37-47ca-85a8-9f320cc07865&#x27;, mode &#x27;rb+&#x27; at 0x1164241e0&gt;</div></td></tr><tr><td style="font-weight:bold;vertical-align:top;">session_filename</td><td style="vertical-align:top;">:</td><td><div>/Users/christopherlee/Desktop/web2py_osx/web2py/web2py.app/Contents/Resources/applications/sequencemagic/sessions/127.0.0.1-def6ac72-7c37-47ca-85a8-9f320cc07865</div></td></tr><tr><td style="font-weight:bold;vertical-align:top;">session_hash</td><td style="vertical-align:top;">:</td><td><div>20c13a2e451d90e3088a03d2412bc979</div></td></tr><tr><td style="font-weight:bold;vertical-align:top;">session_id</td><td style="vertical-align:top;">:</td><td><div>127.0.0.1-def6ac72-7c37-47ca-85a8-9f320cc07865</div></td></tr><tr><td style="font-weight:bold;vertical-align:top;">session_id_name</td><td style="vertical-align:top;">:</td><td><div>session_id_sequencemagic</div></td></tr><tr><td style="font-weight:bold;vertical-align:top;">session_locked</td><td style="vertical-align:top;">:</td><td><div>True</div></td></tr><tr><td style="font-weight:bold;vertical-align:top;">session_masterapp</td><td style="vertical-align:top;">:</td><td><div>sequencemagic</div></td></tr><tr><td style="font-weight:bold;vertical-align:top;">session_new</td><td style="vertical-align:top;">:</td><td><div>False</div></td></tr><tr><td style="font-weight:bold;vertical-align:top;">session_storage_type</td><td style="vertical-align:top;">:</td><td><div>file</div></td></tr><tr><td style="font-weight:bold;vertical-align:top;">status</td><td style="vertical-align:top;">:</td><td><div>200</div></td></tr><tr><td style="font-weight:bold;vertical-align:top;">subtitle</td><td style="vertical-align:top;">:</td><td><div></div></td></tr><tr><td style="font-weight:bold;vertical-align:top;">title</td><td style="vertical-align:top;">:</td><td><div>Sequencemagic</div></td></tr><tr><td style="font-weight:bold;vertical-align:top;">view</td><td style="vertical-align:top;">:</td><td><div>default/index.html</div></td></tr></table></div>'
tRp139
sS'locals'
p140
(dp141
S'results_list'
p142
S'[]'
p143
sS'ctrl'
p144
S"'index'"
p145
sS'i'
S'0'
sS'all_descriptors'
p146
S'None'
p147
sS'header_text'
p148
S"'Search Results'"
p149
sS'authorized'
p150
S'False'
p151
sS'page'
p152
S"'<'"
p153
sS'user'
p154
S'None'
p155
sssS'traceback'
p156
S'Traceback (most recent call last):\n  File "/Users/christopherlee/Desktop/web2py_osx/web2py/web2py.app/Contents/Resources/gluon/restricted.py", line 224, in restricted\n  File "/Users/christopherlee/Desktop/web2py_osx/web2py/web2py.app/Contents/Resources/applications/sequencemagic/controllers/default.py", line 350, in <module>\n  File "/Users/christopherlee/Desktop/web2py_osx/web2py/web2py.app/Contents/Resources/gluon/globals.py", line 392, in <lambda>\n  File "/Users/christopherlee/Desktop/web2py_osx/web2py/web2py.app/Contents/Resources/applications/sequencemagic/controllers/default.py", line 28, in index\nAttributeError: \'str\' object has no attribute \'sequence_name\'\n'
p157
s.