(dp1
S'output'
p2
S"<class 'sqlite3.IntegrityError'> foreign key constraint failed"
p3
sS'layer'
p4
S'/Users/mzimmerman/Documents/Shahar/CS183proj/web2py/applications/seq/controllers/default.py'
p5
sS'code'
p6
S'# -*- coding: utf-8 -*-\n# this file is released under public domain and you can use without limitations\n\n#########################################################################\n## This is a sample controller\n## - index is the default action of any application\n## - user is required for authentication and authorization\n## - download is for downloading files uploaded in the db (does streaming)\n## - api is an example of Hypermedia API support and access control\n#########################################################################\n\ndef index():\n   user = all_descriptors = None\n   header_text = "Latest sequences"\n   search_seq = ""\n   \n   """Set response menu"""\n   ctrl = \'index\'\n   authorized = False\n   if request.args(0) is not None:\n       ctrl = \'myindex\'\n       header_text = "My sequences"\n       if request.args(0) != \'None\':\n           p = db(db.descriptor_table.creating_user_id == request.args(0)).select()\n           for row in p:\n               if row.creating_user_id == auth.user_id:\n                   authorized = True  \n       else:\n           session.flash = T("You need to login!")\n\n   #response.menu = setResponseMenu(\'index\', True)\n   response.menu = setResponseMenu(ctrl, authorized)\n\n   # TODO: conditional authorization for viewing "My sequences"\n\n   """If passed arg (user id), shows only user\'s sequences (requires auth). Else, shows all sequences"""\n\n   # seqList = db(db.descriptor_to_user.user_id == auth.user_id).select(orderby=db.descriptor_table.seq_id)\n   user = auth.user\n   all_descriptors = db().select(db.descriptor_table.ALL, orderby=~db.descriptor_table.date_created) # For now, return all descriptors in the DB\n   query = None\n   if authorized: #only showing the sequences you created and that you are subscribed without the edit button\n       #all_descriptors = db(db.descriptor_table.creating_user_id == request.args(0)).select(db.descriptor_table.ALL)\n       query = db(db.descriptor_to_user.user_id == request.args(0)).select(db.descriptor_to_user.descriptor_id)\n       #query is to get all the sequence_id subscribed to the user_id\n       \n   if all_descriptors is None:\n      session.flash = T("You have no sequences!")\n   \n  \n   \n   return locals()\n\n@auth.requires_login()\ndef subscribe():\n    checking = db((db.descriptor_to_user.descriptor_id == request.args(0)) & (db.descriptor_to_user.user_id == auth.user_id)).select(db.descriptor_to_user.ALL)\n    if not checking:\n        update_descriptor_to_user(request.args(0))   \n    redirect(URL(\'default\', \'index\'))\n\n@auth.requires_login()\ndef edit():\n    # authorize the user to edit\n    authorized = False\n    if request.args(0) is not None:\n       header_text = "You\'re not authorized to edit this sequence"\n       p = db(db.descriptor_table.id == request.args(0)).select()\n       for row in p:\n          if row.creating_user_id == auth.user_id:\n              authorized = True\n              header_text = row.sequence_name\n          else:\n              session.flash = T("You need to login!")\n    else:\n        redirect(URL(\'default\', \'index\'))\n\n    sequence_name = "Test sequence"\n\n    return locals()\n\ndef view():\n   """\n   Allows a user to visualize a particular sequence with it\'s annotations,\n   if any are present. Requires seq they want to see to be passed via URL,\n   as in sequencemagic/view/:descriptor_id\n   """\n   annotationList = seq = seq_type = desc_name = desc_description = date_created = desc_author = list_of_suscriptors = None\n   \n   desc_id = request.args(0) or None\n   if desc_id is None:\n       # no descriptor id given\n       return locals()\n\n   desc_row = db(db.descriptor_table.id == desc_id).select().first()\n\n   if desc_row is None:\n       # descriptor doesn\'t exist\n       seq = \'Sequence not found for given descriptor ID\'\n       return locals()\n\n   user_row = db(db.auth_user.id == desc_row.creating_user_id).select().first()\n\n   desc_author = user_row.first_name + " " + user_row.last_name\n   desc_name = desc_row.sequence_name\n   desc_description = desc_row.sequence_description\n   date_created = desc_row.date_created\n   seq_id = desc_row.seq_id\n   \n   list_of_suscriptors = db((db.descriptor_to_user.descriptor_id == desc_id) & (db.descriptor_to_user.user_id == db.auth_user.id)).select(db.auth_user.first_name, db.auth_user.last_name, db.auth_user.email)\n   \n   sequence_row = db(db.sequences.id == seq_id).select().first()\n   if sequence_row.seq is not None:\n       seq = sequence_row.seq\n       seq_type = \'text\'\n   elif sequence_row.seq_file_name is not None:\n       seq = sequence_row.seq_file_name\n       seq_type = sequence_row.seq_file_type\n\n   if seq is None:\n       # sequence info is corrupted/missing\n       seq = \'Sequence info not found\'\n       return locals()\n\n   # annotationList = db(db.annotations.descriptor_id == seqID).select().annotation_name\n   return locals()\n\n   """suscriptions_of_user= db((db.descriptor_to_user.user_id==auth.user_id)&(db.descriptor_to_user.descriptor_id==db.descriptor_table.id)&(db.descriptor_table.seq_id == db.sequences.id)).select(db.descriptor_table.ALL)\n   {{if len(suscriptions_of_user) > 0:}}\n                <ul>Im suscribed to :\n                    {{for p_2 in suscriptions_of_user:}}\n                        <li>{{=p_2.sequence_name}}</li>\n\n                    {{pass}}\n                </ul>\n            {{pass}} THIS IS THE QUERY AND THE PART TO PUT DIRECTLY IN THE VIEW."""\n\n@auth.requires_login()\ndef upload():\n    """Set response menu"""\n    response.menu = setResponseMenu(\'upload\', True)\n\n    categories = ["FASTA", "Plain Sequence"]\n    file_active = True;\n    form = SQLFORM.factory(\n        Field(\'name\', label=\'Sequence name\', required=True),\n        Field(\'file_type\', label = "File Type", requires=IS_IN_SET(categories)),\n        Field(\'sequence_file\', \'upload\', uploadfolder =\'./applications/sequencemagic/uploads\'),\n        Field(\'description\', \'text\')\n    )\n    #form.add_button(\'Enter Sequence Manually\', URL(\'upload\', args=[\'man\']))\n    \n\t#Manual Sequence Entry form\n    if request.args(0)==\'man\':\n        file_active = False;\n        form = SQLFORM.factory(\n            Field(\'name\', label = \'Sequence name\', required = True),\n            Field(\'seqs\', \'text\', requires=IS_NOT_EMPTY()),\n            Field(\'description\', \'text\')\n        )\n        #form.add_button(\'Enter Sequence File\', URL(\'upload\', args=[]))\n\n    if form.process().accepted:\n        session.flash = T("Your form was accepted")\n        if request.args(0)==\'man\':\n            insert = insert_man_sequence(form)\n            descriptor_id = insert[\'desc_id\'] #<-- defined in the models\n            redirect(URL(\'default\', \'index\'))\n     \telse: \n            insert = insert_file_sequence(form)\n            descriptor_id = insert[\'desc_id\'] #<-- defined in the models\n            redirect(URL(\'default\', \'index\'))\n     \n\t #redirect(URL(\'default\', \'view\', vars=dict(sequenceid=seq_id))\n    else:\n        pass\n    return locals()\n\n\n"""This is just to test the tables and probably not how we should do this"""\n@auth.requires_login()\ndef upload_annotation():\n    """Set response menu"""\n    # response.menu = setResponseMenu(\'multiple\', True)\n\n    categories = []\n    for seq in db(db.descriptor_table).select(): #run through seq names\n        """if auth.user.first_name == seq.creating_user_id: #if they match curr users name append them for later\n            categories.append(seq.sequence_name)"""\n        if (seq.creating_user_id == auth.user_id):\n            categories.append(seq.sequence_name)\n\n    form = SQLFORM.factory(\n        Field(\'seq_name\', label=\' Select A Sequence to Annotate\', requires=IS_IN_SET(categories), required=True), # consists of only users own sequences\n        Field(\'annotation_name\', requires=IS_NOT_EMPTY()),\n        Field(\'annotation_position\', \'list:integer\'),\n        Field(\'description\', \'text\')\n    )\n\n    if form.process().accepted:\n        session.flash = T("Your form was accepted")\n        descriptor_id = insert_annotation(form) #<-- defined in the models\n        redirect(URL(\'default\', \'view\', args=[descriptor_id]))\n    else:\n        pass\n    return dict(form=form)\n\n"""Done just needs tweaking based on UI"""\ndef search():\n    search_seq = request.vars.search\n    search_pages = []\n    search_page_ids = []\n    if search_seq is not None:\n        all_pages = db().select(db.descriptor_table.ALL, orderby=db.descriptor_table.sequence_name)\n        for page in all_pages:\n            if (search_seq.lower() in repr(page.sequence_name).lower()):\n                search_page_ids.append(page.id)\n                search_pages.append(page)\n    return dict(search_seq=search_seq, search_pages=search_pages, search_page_ids=search_page_ids)\n\ndef user():\n    """\n    exposes:\n    http://..../[app]/default/user/login\n    http://..../[app]/default/user/logout\n    http://..../[app]/default/user/register\n    http://..../[app]/default/user/profile\n    http://..../[app]/default/user/retrieve_password\n    http://..../[app]/default/user/change_password\n    http://..../[app]/default/user/manage_users (requires membership in\n    use @auth.requires_login()\n        @auth.requires_membership(\'group name\')\n        @auth.requires_permission(\'read\',\'table name\',record_id)\n    to decorate functions that need access control\n    """\n    return dict(form=auth())\n\n\n@cache.action()\ndef download():\n    """\n    allows downloading of uploaded files\n    http://..../[app]/default/download/[filename]\n    """\n    return response.download(request, db)\n\n\ndef call():\n    """\n    exposes services. for example:\n    http://..../[app]/default/call/jsonrpc\n    decorate with @services.jsonrpc the functions to expose\n    supports xml, json, xmlrpc, jsonrpc, amfrpc, rss, csv\n    """\n    return service()\n\n\n@auth.requires_login() \ndef api():\n    """\n    this is example of API with access control\n    WEB2PY provides Hypermedia API (Collection+JSON) Experimental\n    """\n    from gluon.contrib.hypermedia import Collection\n    rules = {\n        \'<tablename>\': {\'GET\':{},\'POST\':{},\'PUT\':{},\'DELETE\':{}},\n        }\n    return Collection(db).process(request,response,rules)\n\nresponse._vars=response._caller(upload)\n'
p7
sS'snapshot'
p8
(dp9
S'exception'
p10
(dp11
S'__module__'
p12
S"'sqlite3'"
p13
sS'__getslice__'
p14
S"<method-wrapper '__getslice__' of IntegrityError object>"
p15
sS'__str__'
p16
S"<method-wrapper '__str__' of IntegrityError object>"
p17
sS'__reduce__'
p18
S'<built-in method __reduce__ of IntegrityError object>'
p19
sS'__dict__'
p20
S'{}'
p21
sS'__sizeof__'
p22
S'<built-in method __sizeof__ of IntegrityError object>'
p23
sS'__weakref__'
p24
S'None'
p25
sS'__init__'
p26
S"<method-wrapper '__init__' of IntegrityError object>"
p27
sS'__setattr__'
p28
S"<method-wrapper '__setattr__' of IntegrityError object>"
p29
sS'__reduce_ex__'
p30
S'<built-in method __reduce_ex__ of IntegrityError object>'
p31
sS'__new__'
p32
S'<built-in method __new__ of type object>'
p33
sS'__format__'
p34
S'<built-in method __format__ of IntegrityError object>'
p35
sS'__class__'
p36
S"<class 'sqlite3.IntegrityError'>"
p37
sS'__doc__'
p38
S'None'
p39
sS'__getitem__'
p40
S"<method-wrapper '__getitem__' of IntegrityError object>"
p41
sS'__setstate__'
p42
S'<built-in method __setstate__ of IntegrityError object>'
p43
sS'__getattribute__'
p44
S"<method-wrapper '__getattribute__' of IntegrityError object>"
p45
sS'args'
p46
S"('foreign key constraint failed',)"
p47
sS'__subclasshook__'
p48
S'<built-in method __subclasshook__ of type object>'
p49
sS'__unicode__'
p50
S'<built-in method __unicode__ of IntegrityError object>'
p51
sS'__delattr__'
p52
S"<method-wrapper '__delattr__' of IntegrityError object>"
p53
sS'__repr__'
p54
S"<method-wrapper '__repr__' of IntegrityError object>"
p55
sS'__hash__'
p56
S"<method-wrapper '__hash__' of IntegrityError object>"
p57
ssS'evalue'
p58
S'foreign key constraint failed'
p59
sS'request'
p60
cgluon.html
XML_unpickle
p61
(S's\x86e\x00\x00<div><table><tr><td style="font-weight:bold;vertical-align:top;">ajax</td><td style="vertical-align:top;">:</td><td><div>False</div></td></tr><tr><td style="font-weight:bold;vertical-align:top;">application</td><td style="vertical-align:top;">:</td><td><div>seq</div></td></tr><tr><td style="font-weight:bold;vertical-align:top;">args</td><td style="vertical-align:top;">:</td><td><div><table><tr><td><div>man</div></td></tr></table></div></td></tr><tr><td style="font-weight:bold;vertical-align:top;">cid</td><td style="vertical-align:top;">:</td><td><div>None</div></td></tr><tr><td style="font-weight:bold;vertical-align:top;">client</td><td style="vertical-align:top;">:</td><td><div>127.0.0.1</div></td></tr><tr><td style="font-weight:bold;vertical-align:top;">controller</td><td style="vertical-align:top;">:</td><td><div>default</div></td></tr><tr><td style="font-weight:bold;vertical-align:top;">cookies</td><td style="vertical-align:top;">:</td><td><div><table><tr><td style="font-weight:bold;vertical-align:top;">session_id_admin</td><td style="vertical-align:top;">:</td><td><div>127.0.0.1-f91453a9-0e6f-4297-89fd-d9b2837f95be<table><tr><td style="font-weight:bold;vertical-align:top;">comment</td><td style="vertical-align:top;">:</td><td><div></div></td></tr><tr><td style="font-weight:bold;vertical-align:top;">domain</td><td style="vertical-align:top;">:</td><td><div></div></td></tr><tr><td style="font-weight:bold;vertical-align:top;">expires</td><td style="vertical-align:top;">:</td><td><div></div></td></tr><tr><td style="font-weight:bold;vertical-align:top;">httponly</td><td style="vertical-align:top;">:</td><td><div></div></td></tr><tr><td style="font-weight:bold;vertical-align:top;">max-age</td><td style="vertical-align:top;">:</td><td><div></div></td></tr><tr><td style="font-weight:bold;vertical-align:top;">path</td><td style="vertical-align:top;">:</td><td><div></div></td></tr><tr><td style="font-weight:bold;vertical-align:top;">secure</td><td style="vertical-align:top;">:</td><td><div></div></td></tr><tr><td style="font-weight:bold;vertical-align:top;">version</td><td style="vertical-align:top;">:</td><td><div></div></td></tr></table></div></td></tr><tr><td style="font-weight:bold;vertical-align:top;">session_id_seq</td><td style="vertical-align:top;">:</td><td><div>127.0.0.1-956fa1b2-361f-479b-adb9-8675bf8763f7<table><tr><td style="font-weight:bold;vertical-align:top;">comment</td><td style="vertical-align:top;">:</td><td><div></div></td></tr><tr><td style="font-weight:bold;vertical-align:top;">domain</td><td style="vertical-align:top;">:</td><td><div></div></td></tr><tr><td style="font-weight:bold;vertical-align:top;">expires</td><td style="vertical-align:top;">:</td><td><div></div></td></tr><tr><td style="font-weight:bold;vertical-align:top;">httponly</td><td style="vertical-align:top;">:</td><td><div></div></td></tr><tr><td style="font-weight:bold;vertical-align:top;">max-age</td><td style="vertical-align:top;">:</td><td><div></div></td></tr><tr><td style="font-weight:bold;vertical-align:top;">path</td><td style="vertical-align:top;">:</td><td><div></div></td></tr><tr><td style="font-weight:bold;vertical-align:top;">secure</td><td style="vertical-align:top;">:</td><td><div></div></td></tr><tr><td style="font-weight:bold;vertical-align:top;">version</td><td style="vertical-align:top;">:</td><td><div></div></td></tr></table></div></td></tr><tr><td style="font-weight:bold;vertical-align:top;">session_id_welcome</td><td style="vertical-align:top;">:</td><td><div>127.0.0.1-f8db661a-be9e-4e64-816e-6c5f364721af<table><tr><td style="font-weight:bold;vertical-align:top;">comment</td><td style="vertical-align:top;">:</td><td><div></div></td></tr><tr><td style="font-weight:bold;vertical-align:top;">domain</td><td style="vertical-align:top;">:</td><td><div></div></td></tr><tr><td style="font-weight:bold;vertical-align:top;">expires</td><td style="vertical-align:top;">:</td><td><div></div></td></tr><tr><td style="font-weight:bold;vertical-align:top;">httponly</td><td style="vertical-align:top;">:</td><td><div></div></td></tr><tr><td style="font-weight:bold;vertical-align:top;">max-age</td><td style="vertical-align:top;">:</td><td><div></div></td></tr><tr><td style="font-weight:bold;vertical-align:top;">path</td><td style="vertical-align:top;">:</td><td><div></div></td></tr><tr><td style="font-weight:bold;vertical-align:top;">secure</td><td style="vertical-align:top;">:</td><td><div></div></td></tr><tr><td style="font-weight:bold;vertical-align:top;">version</td><td style="vertical-align:top;">:</td><td><div></div></td></tr></table></div></td></tr></table></div></td></tr><tr><td style="font-weight:bold;vertical-align:top;">env</td><td style="vertical-align:top;">:</td><td><div><table><tr><td style="font-weight:bold;vertical-align:top;">CONTENT_LENGTH</td><td style="vertical-align:top;">:</td><td><div>609</div></td></tr><tr><td style="font-weight:bold;vertical-align:top;">CONTENT_TYPE</td><td style="vertical-align:top;">:</td><td><div>multipart/form-data; boundary=----WebKitFormBoundary7hKxE5dOBtWcnhrE</div></td></tr><tr><td style="font-weight:bold;vertical-align:top;">HTTP_ACCEPT</td><td style="vertical-align:top;">:</td><td><div>text/html,application/xhtml+xml,application/xml;q=0.9,image/webp,*/*;q=0.8</div></td></tr><tr><td style="font-weight:bold;vertical-align:top;">HTTP_ACCEPT_ENCODING</td><td style="vertical-align:top;">:</td><td><div>gzip, deflate</div></td></tr><tr><td style="font-weight:bold;vertical-align:top;">HTTP_ACCEPT_LANGUAGE</td><td style="vertical-align:top;">:</td><td><div>en-US,en;q=0.8</div></td></tr><tr><td style="font-weight:bold;vertical-align:top;">HTTP_CACHE_CONTROL</td><td style="vertical-align:top;">:</td><td><div>max-age=0</div></td></tr><tr><td style="font-weight:bold;vertical-align:top;">HTTP_CONNECTION</td><td style="vertical-align:top;">:</td><td><div>keep-alive</div></td></tr><tr><td style="font-weight:bold;vertical-align:top;">HTTP_CONTENT_LENGTH</td><td style="vertical-align:top;">:</td><td><div>609</div></td></tr><tr><td style="font-weight:bold;vertical-align:top;">HTTP_CONTENT_TYPE</td><td style="vertical-align:top;">:</td><td><div>multipart/form-data; boundary=----WebKitFormBoundary7hKxE5dOBtWcnhrE</div></td></tr><tr><td style="font-weight:bold;vertical-align:top;">HTTP_COOKIE</td><td style="vertical-align:top;">:</td><td><div>session_id_admin=127.0.0.1-f91453a9-0e6f-4297-89fd-d9b2837f95be; session_id_welcome=127.0.0.1-f8db661a-be9e-4e64-816e-6c5f364721af; session_id_seq=127.0.0.1-956fa1b2-361f-479b-adb9-8675bf8763f7</div></td></tr><tr><td style="font-weight:bold;vertical-align:top;">HTTP_HOST</td><td style="vertical-align:top;">:</td><td><div>127.0.0.1:8000</div></td></tr><tr><td style="font-weight:bold;vertical-align:top;">HTTP_ORIGIN</td><td style="vertical-align:top;">:</td><td><div>http://127.0.0.1:8000</div></td></tr><tr><td style="font-weight:bold;vertical-align:top;">HTTP_REFERER</td><td style="vertical-align:top;">:</td><td><div>http://127.0.0.1:8000/seq/default/upload/man</div></td></tr><tr><td style="font-weight:bold;vertical-align:top;">HTTP_USER_AGENT</td><td style="vertical-align:top;">:</td><td><div>Mozilla/5.0 (Macintosh; Intel Mac OS X 10_8_5) AppleWebKit/537.36 (KHTML, like Gecko) Chrome/41.0.2272.89 Safari/537.36</div></td></tr><tr><td style="font-weight:bold;vertical-align:top;">PATH_INFO</td><td style="vertical-align:top;">:</td><td><div>/seq/default/upload/man</div></td></tr><tr><td style="font-weight:bold;vertical-align:top;">QUERY_STRING</td><td style="vertical-align:top;">:</td><td><div></div></td></tr><tr><td style="font-weight:bold;vertical-align:top;">REMOTE_ADDR</td><td style="vertical-align:top;">:</td><td><div>127.0.0.1</div></td></tr><tr><td style="font-weight:bold;vertical-align:top;">REMOTE_PORT</td><td style="vertical-align:top;">:</td><td><div>56063</div></td></tr><tr><td style="font-weight:bold;vertical-align:top;">REQUEST_METHOD</td><td style="vertical-align:top;">:</td><td><div>POST</div></td></tr><tr><td style="font-weight:bold;vertical-align:top;">SCRIPT_NAME</td><td style="vertical-align:top;">:</td><td><div></div></td></tr><tr><td style="font-weight:bold;vertical-align:top;">SERVER_NAME</td><td style="vertical-align:top;">:</td><td><div>Michaels-MacBook-Air-3.local</div></td></tr><tr><td style="font-weight:bold;vertical-align:top;">SERVER_PORT</td><td style="vertical-align:top;">:</td><td><div>8000</div></td></tr><tr><td style="font-weight:bold;vertical-align:top;">SERVER_PROTOCOL</td><td style="vertical-align:top;">:</td><td><div>HTTP/1.1</div></td></tr><tr><td style="font-weight:bold;vertical-align:top;">SERVER_SOFTWARE</td><td style="vertical-align:top;">:</td><td><div>Rocket 1.2.6</div></td></tr><tr><td style="font-weight:bold;vertical-align:top;">app_folders</td><td style="vertical-align:top;">:</td><td><div>set([&#x27;/Users/mzimmerman/Documents/Shahar/CS183proj/web2py/applications/welcome/&#x27;, &#x27;/Users/mzimmerman/Documents/Shahar/CS183proj/web2py/applications/seq/&#x27;])</div></td></tr><tr><td style="font-weight:bold;vertical-align:top;">applications_parent</td><td style="vertical-align:top;">:</td><td><div>/Users/mzimmerman/Documents/Shahar/CS183proj/web2py</div></td></tr><tr><td style="font-weight:bold;vertical-align:top;">cmd_args</td><td style="vertical-align:top;">:</td><td><div><table></table></div></td></tr><tr><td style="font-weight:bold;vertical-align:top;">cmd_options</td><td style="vertical-align:top;">:</td><td><div>&lt;Values at 0x10978de60: {&#x27;verbose&#x27;: False, &#x27;ip&#x27;: &#x27;127.0.0.1&#x27;, &#x27;debuglevel&#x27;: 30, &#x27;with_scheduler&#x27;: False, &#x27;ips&#x27;: [&#x27;10.0.0.14&#x27;, &#x27;fe80::1610:9fff:feec:dff6%en0&#x27;, &#x27;192.168.56.1&#x27;], &#x27;shutdown_timeout&#x27;: 5, &#x27;taskbar&#x27;: False, &#x27;with_coverage&#x27;: False, &#x27;scheduler_groups&#x27;: None, &#x27;port&#x27;: 8000, &#x27;maxthreads&#x27;: None, &#x27;softcron&#x27;: False, &#x27;server_name&#x27;: &#x27;Michaels-MacBook-Air-3.local&#x27;, &#x27;bpython&#x27;: False, &#x27;nogui&#x27;: False, &#x27;pid_filename&#x27;: &#x27;httpserver.pid&#x27;, &#x27;extcron&#x27;: False, &#x27;runcron&#x27;: False, &#x27;run_system_tests&#x27;: False, &#x27;test&#x27;: None, &#x27;folder&#x27;: &#x27;/Users/mzimmerman/Documents/Shahar/CS183proj/web2py&#x27;, &#x27;config&#x27;: &#x27;&#x27;, &#x27;minthreads&#x27;: None, &#x27;shell&#x27;: None, &#x27;run&#x27;: &#x27;&#x27;, &#x27;log_filename&#x27;: &#x27;httpserver.log&#x27;, &#x27;profiler_dir&#x27;: None, &#x27;args&#x27;: [&#x27;&#x27;], &#x27;socket_timeout&#x27;: 5, &#x27;ssl_ca_certificate&#x27;: None, &#x27;scheduler&#x27;: None, &#x27;interfaces&#x27;: None, &#x27;ssl_private_key&#x27;: &#x27;&#x27;, &#x27;gae&#x27;: None, &#x27;password&#x27;: &#x27;&lt;ask&gt;&#x27;, &#x27;request_queue_size&#x27;: 5, &#x27;ssl_certificate&#x27;: &#x27;&#x27;, &#x27;cronjob&#x27;: False, &#x27;numthreads&#x27;: None, &#x27;quiet&#x27;: False, &#x27;import_models&#x27;: False, &#x27;timeout&#x27;: 10, &#x27;plain&#x27;: False, &#x27;nobanner&#x27;: False}&gt;</div></td></tr><tr><td style="font-weight:bold;vertical-align:top;">content_length</td><td style="vertical-align:top;">:</td><td><div>609</div></td></tr><tr><td style="font-weight:bold;vertical-align:top;">content_type</td><td style="vertical-align:top;">:</td><td><div>multipart/form-data; boundary=----WebKitFormBoundary7hKxE5dOBtWcnhrE</div></td></tr><tr><td style="font-weight:bold;vertical-align:top;">db_sessions</td><td style="vertical-align:top;">:</td><td><div>set([])</div></td></tr><tr><td style="font-weight:bold;vertical-align:top;">debugging</td><td style="vertical-align:top;">:</td><td><div>False</div></td></tr><tr><td style="font-weight:bold;vertical-align:top;">gluon_parent</td><td style="vertical-align:top;">:</td><td><div>/Users/mzimmerman/Documents/Shahar/CS183proj/web2py</div></td></tr><tr><td style="font-weight:bold;vertical-align:top;">http_accept</td><td style="vertical-align:top;">:</td><td><div>text/html,application/xhtml+xml,application/xml;q=0.9,image/webp,*/*;q=0.8</div></td></tr><tr><td style="font-weight:bold;vertical-align:top;">http_accept_encoding</td><td style="vertical-align:top;">:</td><td><div>gzip, deflate</div></td></tr><tr><td style="font-weight:bold;vertical-align:top;">http_accept_language</td><td style="vertical-align:top;">:</td><td><div>en-US,en;q=0.8</div></td></tr><tr><td style="font-weight:bold;vertical-align:top;">http_cache_control</td><td style="vertical-align:top;">:</td><td><div>max-age=0</div></td></tr><tr><td style="font-weight:bold;vertical-align:top;">http_connection</td><td style="vertical-align:top;">:</td><td><div>keep-alive</div></td></tr><tr><td style="font-weight:bold;vertical-align:top;">http_content_length</td><td style="vertical-align:top;">:</td><td><div>609</div></td></tr><tr><td style="font-weight:bold;vertical-align:top;">http_content_type</td><td style="vertical-align:top;">:</td><td><div>multipart/form-data; boundary=----WebKitFormBoundary7hKxE5dOBtWcnhrE</div></td></tr><tr><td style="font-weight:bold;vertical-align:top;">http_cookie</td><td style="vertical-align:top;">:</td><td><div>session_id_admin=127.0.0.1-f91453a9-0e6f-4297-89fd-d9b2837f95be; session_id_welcome=127.0.0.1-f8db661a-be9e-4e64-816e-6c5f364721af; session_id_seq=127.0.0.1-956fa1b2-361f-479b-adb9-8675bf8763f7</div></td></tr><tr><td style="font-weight:bold;vertical-align:top;">http_host</td><td style="vertical-align:top;">:</td><td><div>127.0.0.1:8000</div></td></tr><tr><td style="font-weight:bold;vertical-align:top;">http_origin</td><td style="vertical-align:top;">:</td><td><div>http://127.0.0.1:8000</div></td></tr><tr><td style="font-weight:bold;vertical-align:top;">http_referer</td><td style="vertical-align:top;">:</td><td><div>http://127.0.0.1:8000/seq/default/upload/man</div></td></tr><tr><td style="font-weight:bold;vertical-align:top;">http_user_agent</td><td style="vertical-align:top;">:</td><td><div>Mozilla/5.0 (Macintosh; Intel Mac OS X 10_8_5) AppleWebKit/537.36 (KHTML, like Gecko) Chrome/41.0.2272.89 Safari/537.36</div></td></tr><tr><td style="font-weight:bold;vertical-align:top;">is_jython</td><td style="vertical-align:top;">:</td><td><div>False</div></td></tr><tr><td style="font-weight:bold;vertical-align:top;">is_pypy</td><td style="vertical-align:top;">:</td><td><div>False</div></td></tr><tr><td style="font-weight:bold;vertical-align:top;">is_source</td><td style="vertical-align:top;">:</td><td><div>True</div></td></tr><tr><td style="font-weight:bold;vertical-align:top;">local_hosts</td><td style="vertical-align:top;">:</td><td><div><table><tr><td><div>10.0.0.14</div></td></tr><tr><td><div>::ffff:127.0.0.1</div></td></tr><tr><td><div>::1</div></td></tr><tr><td><div>fe80::1610:9fff:feec:dff6%en0</div></td></tr><tr><td><div>Michaels-MacBook-Air-3.local</div></td></tr><tr><td><div>127.0.0.1</div></td></tr><tr><td><div>192.168.56.1</div></td></tr></table></div></td></tr><tr><td style="font-weight:bold;vertical-align:top;">path_info</td><td style="vertical-align:top;">:</td><td><div>/seq/default/upload/man</div></td></tr><tr><td style="font-weight:bold;vertical-align:top;">query_string</td><td style="vertical-align:top;">:</td><td><div></div></td></tr><tr><td style="font-weight:bold;vertical-align:top;">remote_addr</td><td style="vertical-align:top;">:</td><td><div>127.0.0.1</div></td></tr><tr><td style="font-weight:bold;vertical-align:top;">remote_port</td><td style="vertical-align:top;">:</td><td><div>56063</div></td></tr><tr><td style="font-weight:bold;vertical-align:top;">request_method</td><td style="vertical-align:top;">:</td><td><div>POST</div></td></tr><tr><td style="font-weight:bold;vertical-align:top;">request_uri</td><td style="vertical-align:top;">:</td><td><div>/seq/default/upload/man</div></td></tr><tr><td style="font-weight:bold;vertical-align:top;">script_name</td><td style="vertical-align:top;">:</td><td><div></div></td></tr><tr><td style="font-weight:bold;vertical-align:top;">server_name</td><td style="vertical-align:top;">:</td><td><div>Michaels-MacBook-Air-3.local</div></td></tr><tr><td style="font-weight:bold;vertical-align:top;">server_port</td><td style="vertical-align:top;">:</td><td><div>8000</div></td></tr><tr><td style="font-weight:bold;vertical-align:top;">server_protocol</td><td style="vertical-align:top;">:</td><td><div>HTTP/1.1</div></td></tr><tr><td style="font-weight:bold;vertical-align:top;">server_software</td><td style="vertical-align:top;">:</td><td><div>Rocket 1.2.6</div></td></tr><tr><td style="font-weight:bold;vertical-align:top;">web2py_path</td><td style="vertical-align:top;">:</td><td><div>/Users/mzimmerman/Documents/Shahar/CS183proj/web2py</div></td></tr><tr><td style="font-weight:bold;vertical-align:top;">web2py_version</td><td style="vertical-align:top;">:</td><td><div>2.9.11-stable+timestamp.2014.09.15.23.35.11</div></td></tr><tr><td style="font-weight:bold;vertical-align:top;">wsgi.errors</td><td style="vertical-align:top;">:</td><td><div>&lt;open file &#x27;&lt;stderr&gt;&#x27;, mode &#x27;w&#x27; at 0x1087e1270&gt;</div></td></tr><tr><td style="font-weight:bold;vertical-align:top;">wsgi.file_wrapper</td><td style="vertical-align:top;">:</td><td><div>&lt;class wsgiref.util.FileWrapper at 0x1095823f8&gt;</div></td></tr><tr><td style="font-weight:bold;vertical-align:top;">wsgi.input</td><td style="vertical-align:top;">:</td><td><div>&lt;socket._fileobject object at 0x1096838d0&gt;</div></td></tr><tr><td style="font-weight:bold;vertical-align:top;">wsgi.multiprocess</td><td style="vertical-align:top;">:</td><td><div>False</div></td></tr><tr><td style="font-weight:bold;vertical-align:top;">wsgi.multithread</td><td style="vertical-align:top;">:</td><td><div>True</div></td></tr><tr><td style="font-weight:bold;vertical-align:top;">wsgi.run_once</td><td style="vertical-align:top;">:</td><td><div>False</div></td></tr><tr><td style="font-weight:bold;vertical-align:top;">wsgi.url_scheme</td><td style="vertical-align:top;">:</td><td><div>http</div></td></tr><tr><td style="font-weight:bold;vertical-align:top;">wsgi.version</td><td style="vertical-align:top;">:</td><td><div><table><tr><td><div>1</div></td></tr><tr><td><div>0</div></td></tr></table></div></td></tr><tr><td style="font-weight:bold;vertical-align:top;">wsgi_errors</td><td style="vertical-align:top;">:</td><td><div>&lt;open file &#x27;&lt;stderr&gt;&#x27;, mode &#x27;w&#x27; at 0x1087e1270&gt;</div></td></tr><tr><td style="font-weight:bold;vertical-align:top;">wsgi_file_wrapper</td><td style="vertical-align:top;">:</td><td><div>&lt;class wsgiref.util.FileWrapper at 0x1095823f8&gt;</div></td></tr><tr><td style="font-weight:bold;vertical-align:top;">wsgi_input</td><td style="vertical-align:top;">:</td><td><div>&lt;socket._fileobject object at 0x1096838d0&gt;</div></td></tr><tr><td style="font-weight:bold;vertical-align:top;">wsgi_multiprocess</td><td style="vertical-align:top;">:</td><td><div>False</div></td></tr><tr><td style="font-weight:bold;vertical-align:top;">wsgi_multithread</td><td style="vertical-align:top;">:</td><td><div>True</div></td></tr><tr><td style="font-weight:bold;vertical-align:top;">wsgi_run_once</td><td style="vertical-align:top;">:</td><td><div>False</div></td></tr><tr><td style="font-weight:bold;vertical-align:top;">wsgi_url_scheme</td><td style="vertical-align:top;">:</td><td><div>http</div></td></tr><tr><td style="font-weight:bold;vertical-align:top;">wsgi_version</td><td style="vertical-align:top;">:</td><td><div><table><tr><td><div>1</div></td></tr><tr><td><div>0</div></td></tr></table></div></td></tr></table></div></td></tr><tr><td style="font-weight:bold;vertical-align:top;">extension</td><td style="vertical-align:top;">:</td><td><div>html</div></td></tr><tr><td style="font-weight:bold;vertical-align:top;">folder</td><td style="vertical-align:top;">:</td><td><div>/Users/mzimmerman/Documents/Shahar/CS183proj/web2py/applications/seq/</div></td></tr><tr><td style="font-weight:bold;vertical-align:top;">function</td><td style="vertical-align:top;">:</td><td><div>upload</div></td></tr><tr><td style="font-weight:bold;vertical-align:top;">global_settings</td><td style="vertical-align:top;">:</td><td><div><table><tr><td style="font-weight:bold;vertical-align:top;">app_folders</td><td style="vertical-align:top;">:</td><td><div>set([&#x27;/Users/mzimmerman/Documents/Shahar/CS183proj/web2py/applications/welcome/&#x27;, &#x27;/Users/mzimmerman/Documents/Shahar/CS183proj/web2py/applications/seq/&#x27;])</div></td></tr><tr><td style="font-weight:bold;vertical-align:top;">applications_parent</td><td style="vertical-align:top;">:</td><td><div>/Users/mzimmerman/Documents/Shahar/CS183proj/web2py</div></td></tr><tr><td style="font-weight:bold;vertical-align:top;">cmd_args</td><td style="vertical-align:top;">:</td><td><div><table></table></div></td></tr><tr><td style="font-weight:bold;vertical-align:top;">cmd_options</td><td style="vertical-align:top;">:</td><td><div>&lt;Values at 0x10978de60: {&#x27;verbose&#x27;: False, &#x27;ip&#x27;: &#x27;127.0.0.1&#x27;, &#x27;debuglevel&#x27;: 30, &#x27;with_scheduler&#x27;: False, &#x27;ips&#x27;: [&#x27;10.0.0.14&#x27;, &#x27;fe80::1610:9fff:feec:dff6%en0&#x27;, &#x27;192.168.56.1&#x27;], &#x27;shutdown_timeout&#x27;: 5, &#x27;taskbar&#x27;: False, &#x27;with_coverage&#x27;: False, &#x27;scheduler_groups&#x27;: None, &#x27;port&#x27;: 8000, &#x27;maxthreads&#x27;: None, &#x27;softcron&#x27;: False, &#x27;server_name&#x27;: &#x27;Michaels-MacBook-Air-3.local&#x27;, &#x27;bpython&#x27;: False, &#x27;nogui&#x27;: False, &#x27;pid_filename&#x27;: &#x27;httpserver.pid&#x27;, &#x27;extcron&#x27;: False, &#x27;runcron&#x27;: False, &#x27;run_system_tests&#x27;: False, &#x27;test&#x27;: None, &#x27;folder&#x27;: &#x27;/Users/mzimmerman/Documents/Shahar/CS183proj/web2py&#x27;, &#x27;config&#x27;: &#x27;&#x27;, &#x27;minthreads&#x27;: None, &#x27;shell&#x27;: None, &#x27;run&#x27;: &#x27;&#x27;, &#x27;log_filename&#x27;: &#x27;httpserver.log&#x27;, &#x27;profiler_dir&#x27;: None, &#x27;args&#x27;: [&#x27;&#x27;], &#x27;socket_timeout&#x27;: 5, &#x27;ssl_ca_certificate&#x27;: None, &#x27;scheduler&#x27;: None, &#x27;interfaces&#x27;: None, &#x27;ssl_private_key&#x27;: &#x27;&#x27;, &#x27;gae&#x27;: None, &#x27;password&#x27;: &#x27;&lt;ask&gt;&#x27;, &#x27;request_queue_size&#x27;: 5, &#x27;ssl_certificate&#x27;: &#x27;&#x27;, &#x27;cronjob&#x27;: False, &#x27;numthreads&#x27;: None, &#x27;quiet&#x27;: False, &#x27;import_models&#x27;: False, &#x27;timeout&#x27;: 10, &#x27;plain&#x27;: False, &#x27;nobanner&#x27;: False}&gt;</div></td></tr><tr><td style="font-weight:bold;vertical-align:top;">db_sessions</td><td style="vertical-align:top;">:</td><td><div>set([])</div></td></tr><tr><td style="font-weight:bold;vertical-align:top;">debugging</td><td style="vertical-align:top;">:</td><td><div>False</div></td></tr><tr><td style="font-weight:bold;vertical-align:top;">gluon_parent</td><td style="vertical-align:top;">:</td><td><div>/Users/mzimmerman/Documents/Shahar/CS183proj/web2py</div></td></tr><tr><td style="font-weight:bold;vertical-align:top;">is_jython</td><td style="vertical-align:top;">:</td><td><div>False</div></td></tr><tr><td style="font-weight:bold;vertical-align:top;">is_pypy</td><td style="vertical-align:top;">:</td><td><div>False</div></td></tr><tr><td style="font-weight:bold;vertical-align:top;">is_source</td><td style="vertical-align:top;">:</td><td><div>True</div></td></tr><tr><td style="font-weight:bold;vertical-align:top;">local_hosts</td><td style="vertical-align:top;">:</td><td><div><table><tr><td><div>10.0.0.14</div></td></tr><tr><td><div>::ffff:127.0.0.1</div></td></tr><tr><td><div>::1</div></td></tr><tr><td><div>fe80::1610:9fff:feec:dff6%en0</div></td></tr><tr><td><div>Michaels-MacBook-Air-3.local</div></td></tr><tr><td><div>127.0.0.1</div></td></tr><tr><td><div>192.168.56.1</div></td></tr></table></div></td></tr><tr><td style="font-weight:bold;vertical-align:top;">web2py_version</td><td style="vertical-align:top;">:</td><td><div>2.9.11-stable+timestamp.2014.09.15.23.35.11</div></td></tr></table></div></td></tr><tr><td style="font-weight:bold;vertical-align:top;">is_https</td><td style="vertical-align:top;">:</td><td><div>False</div></td></tr><tr><td style="font-weight:bold;vertical-align:top;">is_local</td><td style="vertical-align:top;">:</td><td><div>True</div></td></tr><tr><td style="font-weight:bold;vertical-align:top;">is_restful</td><td style="vertical-align:top;">:</td><td><div>False</div></td></tr><tr><td style="font-weight:bold;vertical-align:top;">is_sheduler</td><td style="vertical-align:top;">:</td><td><div>None</div></td></tr><tr><td style="font-weight:bold;vertical-align:top;">is_shell</td><td style="vertical-align:top;">:</td><td><div>None</div></td></tr><tr><td style="font-weight:bold;vertical-align:top;">now</td><td style="vertical-align:top;">:</td><td><div>datetime.datetime(2015, 3, 12, 0, 18, 46, 516192)</div></td></tr><tr><td style="font-weight:bold;vertical-align:top;">raw_args</td><td style="vertical-align:top;">:</td><td><div>man</div></td></tr><tr><td style="font-weight:bold;vertical-align:top;">raw_extension</td><td style="vertical-align:top;">:</td><td><div>None</div></td></tr><tr><td style="font-weight:bold;vertical-align:top;">url</td><td style="vertical-align:top;">:</td><td><div>/seq/default/upload/man</div></td></tr><tr><td style="font-weight:bold;vertical-align:top;">utcnow</td><td style="vertical-align:top;">:</td><td><div>datetime.datetime(2015, 3, 12, 7, 18, 46, 516217)</div></td></tr><tr><td style="font-weight:bold;vertical-align:top;">uuid</td><td style="vertical-align:top;">:</td><td><div>seq/127.0.0.1.2015-03-12.00-18-46.bdb62b44-8aac-4eed-80b0-428f40e090b3</div></td></tr><tr><td style="font-weight:bold;vertical-align:top;">wsgi</td><td style="vertical-align:top;">:</td><td><div>&lt;gluon.main.LazyWSGI object at 0x109691810&gt;</div></td></tr></table></div>'
tRp62
sS'frames'
p63
(lp64
(dp65
S'file'
p66
S'/Users/mzimmerman/Documents/Shahar/CS183proj/web2py/gluon/restricted.py'
p67
sS'dump'
p68
(dp69
S'environment'
p70
S"{'A': <class 'gluon.html.A'>, 'ANY_OF': <class 'gluon.validators.ANY_OF'>, 'ASSIGNJS': <function ASSIGNJS>, 'Auth': <class 'gluon.tools.Auth'>, 'B': <class 'gluon.html.B'>, 'BEAUTIFY': <class 'gluon.html.BEAUTIFY'>, 'BODY': <class 'gluon.html.BODY'>, 'BR': <class 'gluon.html.BR'>, 'BUTTON': <class 'gluon.html.BUTTON'>, 'CAT': <class 'gluon.html.CAT'>, ...}"
p71
sS'ccode'
p72
S'<code object <module> at 0x1096a2b30, file "/Use...pplications/seq/controllers/default.py", line 12>'
p73
ssS'lnum'
p74
I224
sS'lines'
p75
(dp76
I224
S'        exec ccode in environment'
p77
sI225
S'    except HTTP:'
p78
sI226
S'        raise'
p79
sI227
S'    except RestrictedError:'
p80
sI228
S'        # do not encapsulate (obfuscate) the original RestrictedError'
p81
sI219
S'    try:'
p82
sI220
S'        if isinstance(code, types.CodeType):'
p83
sI221
S'            ccode = code'
p84
sI222
S'        else:'
p85
sI223
S'            ccode = compile2(code, layer)'
p86
ssS'call'
p87
S"(code='# -*- coding: utf-8 -*-\\n# this file is released ...,rules)\\n\\nresponse._vars=response._caller(upload)\\n', environment={'A': <class 'gluon.html.A'>, 'ANY_OF': <class 'gluon.validators.ANY_OF'>, 'ASSIGNJS': <function ASSIGNJS>, 'Auth': <class 'gluon.tools.Auth'>, 'B': <class 'gluon.html.B'>, 'BEAUTIFY': <class 'gluon.html.BEAUTIFY'>, 'BODY': <class 'gluon.html.BODY'>, 'BR': <class 'gluon.html.BR'>, 'BUTTON': <class 'gluon.html.BUTTON'>, 'CAT': <class 'gluon.html.CAT'>, ...}, layer='/Users/mzimmerman/Documents/Shahar/CS183proj/web2py/applications/seq/controllers/default.py')"
p88
sS'func'
p89
S'restricted'
p90
sa(dp91
g66
S'/Users/mzimmerman/Documents/Shahar/CS183proj/web2py/applications/seq/controllers/default.py'
p92
sg68
(dp93
sg74
I269
sg75
(dp94
I258
S'def api():'
p95
sI259
S'    """'
p96
sI260
S'    this is example of API with access control'
p97
sI261
S'    WEB2PY provides Hypermedia API (Collection+JSON) Experimental'
p98
sI262
S'    """'
p99
sI263
S'    from gluon.contrib.hypermedia import Collection'
p100
sI264
S'    rules = {'
p101
sI265
S"        '<tablename>': {'GET':{},'POST':{},'PUT':{},'DELETE':{}},"
p102
sI266
S'        }'
p103
sI267
S'    return Collection(db).process(request,response,rules)'
p104
ssg87
S'()'
p105
sg89
S'<module>'
p106
sa(dp107
g66
S'/Users/mzimmerman/Documents/Shahar/CS183proj/web2py/gluon/globals.py'
p108
sg68
(dp109
S'self'
p110
S'undefined'
p111
sS'f'
S'<function upload>'
p112
ssg74
I392
sg75
(dp113
I387
S"        self.flash = ''            # used by the default view layout"
p114
sI388
S'        self.meta = Storage()      # used by web2py_ajax.html'
p115
sI389
S'        self.menu = []             # used by the default view layout'
p116
sI390
S'        self.files = []            # used by web2py_ajax.html'
p117
sI391
S'        self._vars = None'
p118
sI392
S'        self._caller = lambda f: f()'
p119
sI393
S'        self._view_environment = None'
p120
sI394
S'        self._custom_commit = None'
p121
sI395
S'        self._custom_rollback = None'
p122
sI396
S"        self.generic_patterns = ['*']"
p123
ssg87
S'(f=<function upload>)'
p124
sg89
S'<lambda>'
p125
sa(dp126
g66
S'/Users/mzimmerman/Documents/Shahar/CS183proj/web2py/gluon/tools.py'
p127
sg68
(dp128
S'action'
p129
S'<function upload>'
p130
sS'a'
S'()'
p131
sS'b'
g21
ssg74
I3439
sg75
(dp132
I3434
S'                    flag = condition'
p133
sI3435
S'                if not flag:'
p134
sI3436
S'                    current.session.flash = self.messages.access_denied'
p135
sI3437
S'                    return call_or_redirect('
p136
sI3438
S'                        self.settings.on_failed_authorization)'
p137
sI3439
S'                return action(*a, **b)'
p138
sI3440
S'            f.__doc__ = action.__doc__'
p139
sI3441
S'            f.__name__ = action.__name__'
p140
sI3442
S'            f.__dict__.update(action.__dict__)'
p141
sI3443
S'            return f'
p142
ssg87
S'(*a=(), **b={})'
p143
sg89
S'f'
sa(dp144
g66
S'/Users/mzimmerman/Documents/Shahar/CS183proj/web2py/applications/seq/controllers/default.py'
p145
sg68
(dp146
S'insert'
p147
g111
sS'global insert_man_sequence'
p148
S'<function insert_man_sequence>'
p149
sS'form'
p150
S'<gluon.sqlhtml.SQLFORM object>'
p151
ssg74
I165
sg75
(dp152
I160
S"        #form.add_button('Enter Sequence File', URL('upload', args=[]))"
p153
sI161
S''
sI162
S'    if form.process().accepted:'
p154
sI163
S'        session.flash = T("Your form was accepted")'
p155
sI164
S"        if request.args(0)=='man':"
p156
sI165
S'            insert = insert_man_sequence(form)'
p157
sI166
S"            descriptor_id = insert['desc_id'] #<-- defined in the models"
p158
sI167
S"            redirect(URL('default', 'index'))"
p159
sI168
S'     \telse:'
p160
sI169
S'            insert = insert_file_sequence(form)'
p161
ssg87
S'()'
p162
sg89
S'upload'
p163
sa(dp164
g66
S'/Users/mzimmerman/Documents/Shahar/CS183proj/web2py/applications/seq/models/tables.py'
p165
sg68
(dp166
S'seq_id'
p167
S'1L'
p168
sS'desc_id'
p169
g111
sS'global insert_descriptor_table'
p170
S'<function insert_descriptor_table>'
p171
sS'form'
p172
S'<gluon.sqlhtml.SQLFORM object>'
p173
ssg74
I17
sg75
(dp174
I12
S'      name = auth.user.first_name'
p175
sI13
S'   return name'
p176
sI14
S''
sI15
S'def insert_man_sequence(form):'
p177
sI16
S'   seq_id = db.sequences.insert(seq = form.vars.seqs)'
p178
sI17
S'   desc_id = insert_descriptor_table(form, seq_id)'
p179
sI18
S'   update_descriptor_to_user(desc_id)'
p180
sI19
S'   return dict(desc_id=desc_id, seq_id=seq_id)'
p181
sI20
S''
sI21
S'def insert_file_sequence(form):'
p182
ssg87
S'(form=<gluon.sqlhtml.SQLFORM object>)'
p183
sg89
S'insert_man_sequence'
p184
sa(dp185
g66
S'/Users/mzimmerman/Documents/Shahar/CS183proj/web2py/applications/seq/models/tables.py'
p186
sg68
(dp187
S'date_created'
p188
g111
sS'datetime.utcnow'
p189
S'<built-in method utcnow of type object>'
p190
sS'global datetime'
p191
S"<type 'datetime.datetime'>"
p192
ssg74
I37
sg75
(dp193
I32
S'def insert_descriptor_table(form, seq_id):'
p194
sI33
S'   # updates descriptor_table table with sequence name, description, and id'
p195
sI34
S'   descriptor_id = db.descriptor_table.insert(seq_id = seq_id,'
p196
sI35
S'                              sequence_name = form.vars.name,'
p197
sI36
S'                              sequence_description = form.vars.description,'
p198
sI37
S'                              date_created = datetime.utcnow()'
p199
sI38
S'                             )'
p200
sI39
S''
sI40
S'   return descriptor_id'
p201
sI41
S''
ssg87
S'(form=<gluon.sqlhtml.SQLFORM object>, seq_id=1L)'
p202
sg89
S'insert_descriptor_table'
p203
sa(dp204
g66
S'/Users/mzimmerman/Documents/Shahar/CS183proj/web2py/gluon/dal.py'
p205
sg68
(dp206
S'self._listify'
p207
S'<bound method Table._listify of <Table descripto...ence_description,creating_user_id,date_created)>>'
p208
sS'fields'
p209
S"{'creating_user_id': 1L, 'date_created': datetime.datetime(2015, 3, 12, 7, 18, 46, 544422), 'seq_id': 1L, 'sequence_description': 'sdadgasdgasdgasgd', 'sequence_name': 'asdfasdsgd'}"
p210
sS'self'
p211
S'<Table descriptor_table (id,seq_id,sequence_name...uence_description,creating_user_id,date_created)>'
p212
sS'ret'
p213
g111
sS'self._db._adapter'
p214
S'<gluon.dal.SQLiteAdapter object>'
p215
sS'self._db._adapter.insert'
p216
S'<bound method SQLiteAdapter.insert of <gluon.dal.SQLiteAdapter object>>'
p217
sS'self._db'
p218
S'<DAL uri="sqlite://storage.sqlite">'
p219
ssg74
I9317
sg75
(dp220
I9312
S''
sI9313
S'    def insert(self, **fields):'
p221
sI9314
S'        fields = self._defaults(fields)'
p222
sI9315
S'        self._attempt_upload(fields)'
p223
sI9316
S'        if any(f(fields) for f in self._before_insert): return 0'
p224
sI9317
S'        ret =  self._db._adapter.insert(self, self._listify(fields))'
p225
sI9318
S'        if ret and self._after_insert:'
p226
sI9319
S'            fields = Row(fields)'
p227
sI9320
S'            [f(fields, ret) for f in self._after_insert]'
p228
sI9321
S'        return ret'
p229
ssg87
S"(self=<Table descriptor_table (id,seq_id,sequence_name...uence_description,creating_user_id,date_created)>, **fields={'creating_user_id': 1L, 'date_created': datetime.datetime(2015, 3, 12, 7, 18, 46, 544422), 'seq_id': 1L, 'sequence_description': 'sdadgasdgasdgasgd', 'sequence_name': 'asdfasdsgd'})"
p230
sg89
S'insert'
p231
sa(dp232
g66
S'/Users/mzimmerman/Documents/Shahar/CS183proj/web2py/gluon/dal.py'
p233
sg68
(dp234
S'e'
S"IntegrityError('foreign key constraint failed',)"
p235
ssg74
I1361
sg75
(dp236
I1356
S'            self.execute(query)'
p237
sI1357
S'        except Exception:'
p238
sI1358
S'            e = sys.exc_info()[1]'
p239
sI1359
S"            if hasattr(table, '_on_insert_error'):"
p240
sI1360
S'                return table._on_insert_error(table, fields, e)'
p241
sI1361
S'            raise e'
p242
sI1362
S"        if hasattr(table, '_primarykey'):"
p243
sI1363
S'            mydict = dict([(k[0].name, k[1]) for k in fields if k[0].name in table._primarykey])'
p244
sI1364
S'            if mydict != {}:'
p245
sI1365
S'                return mydict'
p246
ssg87
S"(self=<gluon.dal.SQLiteAdapter object>, table=<Table descriptor_table (id,seq_id,sequence_name...uence_description,creating_user_id,date_created)>, fields=[(<gluon.dal.Field object>, 1L), (<gluon.dal.Field object>, 'asdfasdsgd'), (<gluon.dal.Field object>, 1L), (<gluon.dal.Field object>, 'sdadgasdgasdgasgd'), (<gluon.dal.Field object>, datetime.datetime(2015, 3, 12, 7, 18, 46, 544422))])"
p247
sg89
g231
sasS'pyver'
p248
S'Python 2.7.2: /usr/bin/python (prefix: /System/Library/Frameworks/Python.framework/Versions/2.7)'
p249
sS'session'
p250
g61
(S's\x1d\n\x00\x00<div><table><tr><td style="font-weight:bold;vertical-align:top;">auth</td><td style="vertical-align:top;">:</td><td><div><table><tr><td style="font-weight:bold;vertical-align:top;">expiration</td><td style="vertical-align:top;">:</td><td><div>3600</div></td></tr><tr><td style="font-weight:bold;vertical-align:top;">hmac_key</td><td style="vertical-align:top;">:</td><td><div>b89b3923-6f3e-4368-ad90-48d6bad26e3b</div></td></tr><tr><td style="font-weight:bold;vertical-align:top;">last_visit</td><td style="vertical-align:top;">:</td><td><div>datetime.datetime(2015, 3, 12, 0, 18, 36, 85296)</div></td></tr><tr><td style="font-weight:bold;vertical-align:top;">remember_me</td><td style="vertical-align:top;">:</td><td><div>False</div></td></tr><tr><td style="font-weight:bold;vertical-align:top;">user</td><td style="vertical-align:top;">:</td><td><div><table><tr><td style="font-weight:bold;vertical-align:top;">email</td><td style="vertical-align:top;">:</td><td><div>szimmer1@ucsc.edu</div></td></tr><tr><td style="font-weight:bold;vertical-align:top;">first_name</td><td style="vertical-align:top;">:</td><td><div>Shahar</div></td></tr><tr><td style="font-weight:bold;vertical-align:top;">id</td><td style="vertical-align:top;">:</td><td><div>1L</div></td></tr><tr><td style="font-weight:bold;vertical-align:top;">last_name</td><td style="vertical-align:top;">:</td><td><div>Zimmerman</div></td></tr><tr><td style="font-weight:bold;vertical-align:top;">registration_id</td><td style="vertical-align:top;">:</td><td><div></div></td></tr><tr><td style="font-weight:bold;vertical-align:top;">registration_key</td><td style="vertical-align:top;">:</td><td><div></div></td></tr><tr><td style="font-weight:bold;vertical-align:top;">reset_password_key</td><td style="vertical-align:top;">:</td><td><div></div></td></tr></table></div></td></tr><tr><td style="font-weight:bold;vertical-align:top;">user_groups</td><td style="vertical-align:top;">:</td><td><div><table><tr><td style="font-weight:bold;vertical-align:top;">1</td><td style="vertical-align:top;">:</td><td><div>user_1</div></td></tr></table></div></td></tr></table></div></td></tr><tr><td style="font-weight:bold;vertical-align:top;">flash</td><td style="vertical-align:top;">:</td><td><div>Your form was accepted</div></td></tr><tr><td style="font-weight:bold;vertical-align:top;">last_orderby</td><td style="vertical-align:top;">:</td><td><div>None</div></td></tr><tr><td style="font-weight:bold;vertical-align:top;">last_query</td><td style="vertical-align:top;">:</td><td><div>db.sequences.id&gt;0</div></td></tr></table></div>'
tRp251
sS'etype'
p252
S"<class 'sqlite3.IntegrityError'>"
p253
sS'date'
p254
S'Thu Mar 12 00:18:46 2015'
p255
sS'response'
p256
g61
(S's\xd4\x1e\x00\x00<div><table><tr><td style="font-weight:bold;vertical-align:top;">body</td><td style="vertical-align:top;">:</td><td><div>&lt;cStringIO.StringO object at 0x109709c00&gt;</div></td></tr><tr><td style="font-weight:bold;vertical-align:top;">cookies</td><td style="vertical-align:top;">:</td><td><div><table><tr><td style="font-weight:bold;vertical-align:top;">session_id_seq</td><td style="vertical-align:top;">:</td><td><div>127.0.0.1-956fa1b2-361f-479b-adb9-8675bf8763f7<table><tr><td style="font-weight:bold;vertical-align:top;">comment</td><td style="vertical-align:top;">:</td><td><div></div></td></tr><tr><td style="font-weight:bold;vertical-align:top;">domain</td><td style="vertical-align:top;">:</td><td><div></div></td></tr><tr><td style="font-weight:bold;vertical-align:top;">expires</td><td style="vertical-align:top;">:</td><td><div></div></td></tr><tr><td style="font-weight:bold;vertical-align:top;">httponly</td><td style="vertical-align:top;">:</td><td><div></div></td></tr><tr><td style="font-weight:bold;vertical-align:top;">max-age</td><td style="vertical-align:top;">:</td><td><div></div></td></tr><tr><td style="font-weight:bold;vertical-align:top;">path</td><td style="vertical-align:top;">:</td><td><div>/</div></td></tr><tr><td style="font-weight:bold;vertical-align:top;">secure</td><td style="vertical-align:top;">:</td><td><div></div></td></tr><tr><td style="font-weight:bold;vertical-align:top;">version</td><td style="vertical-align:top;">:</td><td><div></div></td></tr></table></div></td></tr></table></div></td></tr><tr><td style="font-weight:bold;vertical-align:top;">delimiters</td><td style="vertical-align:top;">:</td><td><div><table><tr><td><div>{{</div></td></tr><tr><td><div>}}</div></td></tr></table></div></td></tr><tr><td style="font-weight:bold;vertical-align:top;">files</td><td style="vertical-align:top;">:</td><td><div><table></table></div></td></tr><tr><td style="font-weight:bold;vertical-align:top;">flash</td><td style="vertical-align:top;">:</td><td><div>Success!</div></td></tr><tr><td style="font-weight:bold;vertical-align:top;">form_label_separator</td><td style="vertical-align:top;">:</td><td><div>: </div></td></tr><tr><td style="font-weight:bold;vertical-align:top;">formstyle</td><td style="vertical-align:top;">:</td><td><div>table3cols</div></td></tr><tr><td style="font-weight:bold;vertical-align:top;">generic_patterns</td><td style="vertical-align:top;">:</td><td><div><table><tr><td><div>*</div></td></tr></table></div></td></tr><tr><td style="font-weight:bold;vertical-align:top;">google_analytics_id</td><td style="vertical-align:top;">:</td><td><div>None</div></td></tr><tr><td style="font-weight:bold;vertical-align:top;">headers</td><td style="vertical-align:top;">:</td><td><div><table><tr><td style="font-weight:bold;vertical-align:top;">X-Powered-By</td><td style="vertical-align:top;">:</td><td><div>web2py</div></td></tr></table></div></td></tr><tr><td style="font-weight:bold;vertical-align:top;">logo</td><td style="vertical-align:top;">:</td><td><div><a class="brand" href="http://www.web2py.com/"><b>web<span>2</span>py</b>&trade;&nbsp;</a></div></td></tr><tr><td style="font-weight:bold;vertical-align:top;">menu</td><td style="vertical-align:top;">:</td><td><div><table><tr><td><div><table><tr><td><div>Browse sequences</div></td></tr><tr><td><div>False</div></td></tr><tr><td><div>/seq/default/index</div></td></tr><tr><td><div><table></table></div></td></tr></table></div></td></tr><tr><td><div><table><tr><td><div>Upload a sequence</div></td></tr><tr><td><div>True</div></td></tr><tr><td><div>/seq/default/upload</div></td></tr><tr><td><div><table></table></div></td></tr></table></div></td></tr><tr><td><div><table><tr><td><div>My sequences</div></td></tr><tr><td><div>False</div></td></tr><tr><td><div>/seq/default/index/1</div></td></tr><tr><td><div><table></table></div></td></tr></table></div></td></tr></table></div></td></tr><tr><td style="font-weight:bold;vertical-align:top;">meta</td><td style="vertical-align:top;">:</td><td><div><table><tr><td style="font-weight:bold;vertical-align:top;">author</td><td style="vertical-align:top;">:</td><td><div>Your Name &lt;you@example.com&gt;</div></td></tr><tr><td style="font-weight:bold;vertical-align:top;">generator</td><td style="vertical-align:top;">:</td><td><div>Web2py Web Framework</div></td></tr><tr><td style="font-weight:bold;vertical-align:top;">keywords</td><td style="vertical-align:top;">:</td><td><div>web2py, python, framework</div></td></tr></table></div></td></tr><tr><td style="font-weight:bold;vertical-align:top;">models_to_run</td><td style="vertical-align:top;">:</td><td><div><table><tr><td><div>^\\w+\\.py$</div></td></tr><tr><td><div>^default/\\w+\\.py$</div></td></tr><tr><td><div>^default/upload/\\w+\\.py$</div></td></tr></table></div></td></tr><tr><td style="font-weight:bold;vertical-align:top;">postprocessing</td><td style="vertical-align:top;">:</td><td><div><table></table></div></td></tr><tr><td style="font-weight:bold;vertical-align:top;">session_client</td><td style="vertical-align:top;">:</td><td><div>127.0.0.1</div></td></tr><tr><td style="font-weight:bold;vertical-align:top;">session_cookie_compression_level</td><td style="vertical-align:top;">:</td><td><div>None</div></td></tr><tr><td style="font-weight:bold;vertical-align:top;">session_cookie_expires</td><td style="vertical-align:top;">:</td><td><div>None</div></td></tr><tr><td style="font-weight:bold;vertical-align:top;">session_cookie_key</td><td style="vertical-align:top;">:</td><td><div>None</div></td></tr><tr><td style="font-weight:bold;vertical-align:top;">session_data_name</td><td style="vertical-align:top;">:</td><td><div>session_data_seq</div></td></tr><tr><td style="font-weight:bold;vertical-align:top;">session_file</td><td style="vertical-align:top;">:</td><td><div>&lt;open file &#x27;/Users/mzimmerman/Documents/Shahar/CS183proj/web2py/applications/seq/sessions/1e0/0cf/127.0.0.1-956fa1b2-361f-479b-adb9-8675bf8763f7&#x27;, mode &#x27;rb+&#x27; at 0x1091d1390&gt;</div></td></tr><tr><td style="font-weight:bold;vertical-align:top;">session_filename</td><td style="vertical-align:top;">:</td><td><div>/Users/mzimmerman/Documents/Shahar/CS183proj/web2py/applications/seq/sessions/127.0.0.1-956fa1b2-361f-479b-adb9-8675bf8763f7</div></td></tr><tr><td style="font-weight:bold;vertical-align:top;">session_hash</td><td style="vertical-align:top;">:</td><td><div>f06b7d6b4ab36f10fcd57a9732392849</div></td></tr><tr><td style="font-weight:bold;vertical-align:top;">session_id</td><td style="vertical-align:top;">:</td><td><div>127.0.0.1-956fa1b2-361f-479b-adb9-8675bf8763f7</div></td></tr><tr><td style="font-weight:bold;vertical-align:top;">session_id_name</td><td style="vertical-align:top;">:</td><td><div>session_id_seq</div></td></tr><tr><td style="font-weight:bold;vertical-align:top;">session_locked</td><td style="vertical-align:top;">:</td><td><div>True</div></td></tr><tr><td style="font-weight:bold;vertical-align:top;">session_masterapp</td><td style="vertical-align:top;">:</td><td><div>seq</div></td></tr><tr><td style="font-weight:bold;vertical-align:top;">session_new</td><td style="vertical-align:top;">:</td><td><div>False</div></td></tr><tr><td style="font-weight:bold;vertical-align:top;">session_storage_type</td><td style="vertical-align:top;">:</td><td><div>file</div></td></tr><tr><td style="font-weight:bold;vertical-align:top;">status</td><td style="vertical-align:top;">:</td><td><div>200</div></td></tr><tr><td style="font-weight:bold;vertical-align:top;">subtitle</td><td style="vertical-align:top;">:</td><td><div></div></td></tr><tr><td style="font-weight:bold;vertical-align:top;">title</td><td style="vertical-align:top;">:</td><td><div>Seq</div></td></tr><tr><td style="font-weight:bold;vertical-align:top;">view</td><td style="vertical-align:top;">:</td><td><div>default/upload.html</div></td></tr></table></div>'
tRp257
sS'locals'
p258
(dp259
S'query'
p260
S'"INSERT INTO descriptor_table(seq_id,sequence_nam...gd\',1,\'sdadgasdgasdgasgd\',\'2015-03-12 07:18:46\');"'
p261
sS'self'
p262
S'<gluon.dal.SQLiteAdapter object>'
p263
sS'e'
S"IntegrityError('foreign key constraint failed',)"
p264
sS'fields'
p265
S"[(<gluon.dal.Field object>, 1L), (<gluon.dal.Field object>, 'asdfasdsgd'), (<gluon.dal.Field object>, 1L), (<gluon.dal.Field object>, 'sdadgasdgasdgasgd'), (<gluon.dal.Field object>, datetime.datetime(2015, 3, 12, 7, 18, 46, 544422))]"
p266
sS'table'
p267
S'<Table descriptor_table (id,seq_id,sequence_name...uence_description,creating_user_id,date_created)>'
p268
sssS'traceback'
p269
S'Traceback (most recent call last):\n  File "/Users/mzimmerman/Documents/Shahar/CS183proj/web2py/gluon/restricted.py", line 224, in restricted\n    exec ccode in environment\n  File "/Users/mzimmerman/Documents/Shahar/CS183proj/web2py/applications/seq/controllers/default.py", line 269, in <module>\n  File "/Users/mzimmerman/Documents/Shahar/CS183proj/web2py/gluon/globals.py", line 392, in <lambda>\n    self._caller = lambda f: f()\n  File "/Users/mzimmerman/Documents/Shahar/CS183proj/web2py/gluon/tools.py", line 3439, in f\n    return action(*a, **b)\n  File "/Users/mzimmerman/Documents/Shahar/CS183proj/web2py/applications/seq/controllers/default.py", line 165, in upload\n    insert = insert_man_sequence(form)\n  File "/Users/mzimmerman/Documents/Shahar/CS183proj/web2py/applications/seq/models/tables.py", line 17, in insert_man_sequence\n    desc_id = insert_descriptor_table(form, seq_id)\n  File "/Users/mzimmerman/Documents/Shahar/CS183proj/web2py/applications/seq/models/tables.py", line 37, in insert_descriptor_table\n    date_created = datetime.utcnow()\n  File "/Users/mzimmerman/Documents/Shahar/CS183proj/web2py/gluon/dal.py", line 9317, in insert\n    ret =  self._db._adapter.insert(self, self._listify(fields))\n  File "/Users/mzimmerman/Documents/Shahar/CS183proj/web2py/gluon/dal.py", line 1361, in insert\n    raise e\nIntegrityError: foreign key constraint failed\n'
p270
s.