(dp1
S'output'
p2
S"<type 'exceptions.TypeError'> argument of type 'Query' is not iterable"
p3
sS'layer'
p4
S'/Users/mzimmerman/Documents/Shahar/CS183proj/web2py/applications/seq/controllers/default.py'
p5
sS'code'
p6
S'# -*- coding: utf-8 -*-\n# this file is released under public domain and you can use without limitations\n\n#########################################################################\n## This is a sample controller\n## - index is the default action of any application\n## - user is required for authentication and authorization\n## - download is for downloading files uploaded in the db (does streaming)\n## - api is an example of Hypermedia API support and access control\n#########################################################################\n\ndef index():\n   user = all_descriptors = None\n   header_text = "Latest sequences"\n   search_seq = ""\n   \n   """Set response menu"""\n   ctrl = \'index\'\n   authorized = False\n   if request.args(0) is not None:\n       ctrl = \'myindex\'\n       header_text = "My sequences"\n       if request.args(0) != \'None\':\n           p = db(db.descriptor_table.creating_user_id == request.args(0)).select()\n           for row in p:\n               if row.creating_user_id == auth.user_id:\n                   authorized = True  \n       else:\n           session.flash = T("You need to login!")\n\n   #response.menu = setResponseMenu(\'index\', True)\n   response.menu = setResponseMenu(ctrl, authorized)\n\n   # TODO: conditional authorization for viewing "My sequences"\n\n   """If passed arg (user id), shows only user\'s sequences (requires auth). Else, shows all sequences"""\n\n   # seqList = db(db.descriptor_to_user.user_id == auth.user_id).select(orderby=db.descriptor_table.seq_id)\n   user = auth.user\n   all_descriptors = db().select(db.descriptor_table.ALL, orderby=~db.descriptor_table.date_created) # For now, return all descriptors in the DB\n   query = None\n   if authorized: #only showing the sequences you created and that you are subscribed without the edit button\n       #all_descriptors = db(db.descriptor_table.creating_user_id == request.args(0)).select(db.descriptor_table.ALL)\n       query = db(db.descriptor_to_user.user_id == request.args(0)).select(db.descriptor_to_user.descriptor_id)\n       #query is to get all the sequence_id subscribed to the user_id\n       \n   if all_descriptors is None:\n      session.flash = T("You have no sequences!")\n   \n  \n   \n   return locals()\n\n@auth.requires_login()\ndef subscribe():\n    checking = db((db.descriptor_to_user.descriptor_id == request.args(0)) & (db.descriptor_to_user.user_id == auth.user_id)).select(db.descriptor_to_user.ALL)\n    if not checking:\n        update_descriptor_to_user(request.args(0))   \n    redirect(URL(\'default\', \'index\'))\n\n@auth.requires_login()\ndef edit():\n    # authorize the user to edit\n    authorized = False\n    if request.args(0) is not None:\n       header_text = "You\'re not authorized to edit this sequence"\n       p = db(db.descriptor_table.id == request.args(0)).select()\n       for row in p:\n          if row.creating_user_id == auth.user_id:\n              authorized = True\n              header_text = row.sequence_name\n          else:\n              session.flash = T("You need to login!")\n    else:\n        redirect(URL(\'default\', \'index\'))\n\n    sequence_name = "Test sequence"\n\n    return locals()\n\ndef view():\n   """\n   Allows a user to visualize a particular sequence with it\'s annotations,\n   if any are present. Requires seq they want to see to be passed via URL,\n   as in sequencemagic/view/:descriptor_id\n   """\n   annotationList = sequence_row = seq = seq_type = desc_name = desc_description = date_created = desc_author = list_of_suscriptors = None\n   \n   desc_id = request.args(0) or None\n   if desc_id is None:\n       # no descriptor id given\n       return locals()\n\n   desc_row = db(db.descriptor_table.id == desc_id).select().first()\n\n   if desc_row is None:\n       # descriptor doesn\'t exist\n       seq = \'Sequence not found for given descriptor ID\'\n       return locals()\n\n   user_row = db(db.auth_user.id == desc_row.creating_user_id).select().first()\n\n   desc_author = user_row.first_name + " " + user_row.last_name\n   desc_name = desc_row.sequence_name\n   desc_description = desc_row.sequence_description\n   date_created = desc_row.date_created\n   seq_id = desc_row.seq_id\n\n   sql_form = SQLFORM(db.sequences, db.sequences.id == seq_id, fields=[\'seq_file_name\'])\n   \n   list_of_suscriptors = db((db.descriptor_to_user.descriptor_id == desc_id) & (db.descriptor_to_user.user_id == db.auth_user.id)).select(db.auth_user.first_name, db.auth_user.last_name, db.auth_user.email)\n   \n   sequence_row = db(db.sequences.id == seq_id).select().first()\n   if sequence_row.seq is not None:\n       seq = sequence_row.seq\n       seq_type = \'text\'\n   elif sequence_row.seq_file_name is not None:\n       seq = sequence_row.seq_file_name\n       seq_type = sequence_row.seq_file_type\n\n   if seq is None:\n       # sequence info is corrupted/missing\n       seq = \'Sequence info not found\'\n       return locals()\n\n   # annotationList = db(db.annotations.descriptor_id == seqID).select().annotation_name\n   return locals()\n\n   """suscriptions_of_user= db((db.descriptor_to_user.user_id==auth.user_id)&(db.descriptor_to_user.descriptor_id==db.descriptor_table.id)&(db.descriptor_table.seq_id == db.sequences.id)).select(db.descriptor_table.ALL)\n   {{if len(suscriptions_of_user) > 0:}}\n                <ul>Im suscribed to :\n                    {{for p_2 in suscriptions_of_user:}}\n                        <li>{{=p_2.sequence_name}}</li>\n\n                    {{pass}}\n                </ul>\n            {{pass}} THIS IS THE QUERY AND THE PART TO PUT DIRECTLY IN THE VIEW."""\n\n@auth.requires_login()\ndef upload():\n    """Set response menu"""\n    response.menu = setResponseMenu(\'upload\', True)\n\n    categories = ["FASTA", "Plain Sequence"]\n    file_active = True;\n    form = SQLFORM.factory(\n        Field(\'name\', label=\'Sequence name\', required=True),\n        Field(\'file_type\', label = "File Type", requires=IS_IN_SET(categories)),\n        Field(\'sequence_file\', \'upload\'),\n        Field(\'description\', \'text\')\n    )\n    #form.add_button(\'Enter Sequence Manually\', URL(\'upload\', args=[\'man\']))\n    \n\t#Manual Sequence Entry form\n    if request.args(0)==\'man\':\n        file_active = False;\n        form = SQLFORM.factory(\n            Field(\'name\', label = \'Sequence name\', required = True),\n            Field(\'seqs\', \'text\', requires=IS_NOT_EMPTY()),\n            Field(\'description\', \'text\')\n        )\n        #form.add_button(\'Enter Sequence File\', URL(\'upload\', args=[]))\n\n    if form.process().accepted:\n        session.flash = T("Your form was accepted")\n        if request.args(0)==\'man\':\n            insert = insert_man_sequence(form)\n            descriptor_id = insert[\'desc_id\'] #<-- defined in the models\n            redirect(URL(\'default\', \'index\'))\n     \telse: \n            insert = insert_file_sequence(form)\n            descriptor_id = insert[\'desc_id\'] #<-- defined in the models\n            redirect(URL(\'default\', \'index\'))\n     \n\t #redirect(URL(\'default\', \'view\', vars=dict(sequenceid=seq_id))\n    else:\n        pass\n    return locals()\n\n\n"""This is just to test the tables and probably not how we should do this"""\n@auth.requires_login()\ndef upload_annotation():\n    """Set response menu"""\n    # response.menu = setResponseMenu(\'multiple\', True)\n\n    categories = []\n    for seq in db(db.descriptor_table).select(): #run through seq names\n        """if auth.user.first_name == seq.creating_user_id: #if they match curr users name append them for later\n            categories.append(seq.sequence_name)"""\n        if (seq.creating_user_id == auth.user_id):\n            categories.append(seq.sequence_name)\n\n    form = SQLFORM.factory(\n        Field(\'seq_name\', label=\' Select A Sequence to Annotate\', requires=IS_IN_SET(categories), required=True), # consists of only users own sequences\n        Field(\'annotation_name\', requires=IS_NOT_EMPTY()),\n        Field(\'annotation_position\', \'list:integer\'),\n        Field(\'description\', \'text\')\n    )\n\n    if form.process().accepted:\n        session.flash = T("Your form was accepted")\n        descriptor_id = insert_annotation(form) #<-- defined in the models\n        redirect(URL(\'default\', \'view\', args=[descriptor_id]))\n    else:\n        pass\n    return dict(form=form)\n\n"""Done just needs tweaking based on UI"""\ndef search():\n    search_seq = request.vars.search\n    search_pages = []\n    search_page_ids = []\n    if search_seq is not None:\n        all_pages = db().select(db.descriptor_table.ALL, orderby=db.descriptor_table.sequence_name)\n        for page in all_pages:\n            if (search_seq.lower() in repr(page.sequence_name).lower()):\n                search_page_ids.append(page.id)\n                search_pages.append(page)\n    return dict(search_seq=search_seq, search_pages=search_pages, search_page_ids=search_page_ids)\n\ndef user():\n    """\n    exposes:\n    http://..../[app]/default/user/login\n    http://..../[app]/default/user/logout\n    http://..../[app]/default/user/register\n    http://..../[app]/default/user/profile\n    http://..../[app]/default/user/retrieve_password\n    http://..../[app]/default/user/change_password\n    http://..../[app]/default/user/manage_users (requires membership in\n    use @auth.requires_login()\n        @auth.requires_membership(\'group name\')\n        @auth.requires_permission(\'read\',\'table name\',record_id)\n    to decorate functions that need access control\n    """\n    return dict(form=auth())\n\n\n@cache.action()\ndef download():\n    """\n    allows downloading of uploaded files\n    http://..../[app]/default/download/[filename]\n    """\n    return response.download(request, db)\n\n\ndef call():\n    """\n    exposes services. for example:\n    http://..../[app]/default/call/jsonrpc\n    decorate with @services.jsonrpc the functions to expose\n    supports xml, json, xmlrpc, jsonrpc, amfrpc, rss, csv\n    """\n    return service()\n\n\n@auth.requires_login() \ndef api():\n    """\n    this is example of API with access control\n    WEB2PY provides Hypermedia API (Collection+JSON) Experimental\n    """\n    from gluon.contrib.hypermedia import Collection\n    rules = {\n        \'<tablename>\': {\'GET\':{},\'POST\':{},\'PUT\':{},\'DELETE\':{}},\n        }\n    return Collection(db).process(request,response,rules)\n\nresponse._vars=response._caller(view)\n'
p7
sS'snapshot'
p8
(dp9
S'exception'
p10
(dp11
S'__hash__'
p12
S"<method-wrapper '__hash__' of exceptions.TypeError object>"
p13
sS'__setattr__'
p14
S"<method-wrapper '__setattr__' of exceptions.TypeError object>"
p15
sS'__reduce_ex__'
p16
S'<built-in method __reduce_ex__ of exceptions.TypeError object>'
p17
sS'__getslice__'
p18
S"<method-wrapper '__getslice__' of exceptions.TypeError object>"
p19
sS'__getitem__'
p20
S"<method-wrapper '__getitem__' of exceptions.TypeError object>"
p21
sS'__setstate__'
p22
S'<built-in method __setstate__ of exceptions.TypeError object>'
p23
sS'args'
p24
S'("argument of type \'Query\' is not iterable",)'
p25
sS'__reduce__'
p26
S'<built-in method __reduce__ of exceptions.TypeError object>'
p27
sS'__str__'
p28
S"<method-wrapper '__str__' of exceptions.TypeError object>"
p29
sS'__format__'
p30
S'<built-in method __format__ of exceptions.TypeError object>'
p31
sS'__getattribute__'
p32
S"<method-wrapper '__getattribute__' of exceptions.TypeError object>"
p33
sS'__class__'
p34
S"<type 'exceptions.TypeError'>"
p35
sS'__unicode__'
p36
S'<built-in method __unicode__ of exceptions.TypeError object>'
p37
sS'__delattr__'
p38
S"<method-wrapper '__delattr__' of exceptions.TypeError object>"
p39
sS'__subclasshook__'
p40
S'<built-in method __subclasshook__ of type object>'
p41
sS'__repr__'
p42
S"<method-wrapper '__repr__' of exceptions.TypeError object>"
p43
sS'__dict__'
p44
S'{}'
p45
sS'__sizeof__'
p46
S'<built-in method __sizeof__ of exceptions.TypeError object>'
p47
sS'__doc__'
p48
S"'Inappropriate argument type.'"
p49
sS'__init__'
p50
S"<method-wrapper '__init__' of exceptions.TypeError object>"
p51
sS'__new__'
p52
S'<built-in method __new__ of type object>'
p53
ssS'evalue'
p54
S"argument of type 'Query' is not iterable"
p55
sS'request'
p56
cgluon.html
XML_unpickle
p57
(S'sZY\x00\x00<div><table><tr><td style="font-weight:bold;vertical-align:top;">ajax</td><td style="vertical-align:top;">:</td><td><div>False</div></td></tr><tr><td style="font-weight:bold;vertical-align:top;">application</td><td style="vertical-align:top;">:</td><td><div>seq</div></td></tr><tr><td style="font-weight:bold;vertical-align:top;">args</td><td style="vertical-align:top;">:</td><td><div><table><tr><td><div>1</div></td></tr></table></div></td></tr><tr><td style="font-weight:bold;vertical-align:top;">cid</td><td style="vertical-align:top;">:</td><td><div>None</div></td></tr><tr><td style="font-weight:bold;vertical-align:top;">client</td><td style="vertical-align:top;">:</td><td><div>127.0.0.1</div></td></tr><tr><td style="font-weight:bold;vertical-align:top;">controller</td><td style="vertical-align:top;">:</td><td><div>default</div></td></tr><tr><td style="font-weight:bold;vertical-align:top;">cookies</td><td style="vertical-align:top;">:</td><td><div><table><tr><td style="font-weight:bold;vertical-align:top;">session_id_admin</td><td style="vertical-align:top;">:</td><td><div>127.0.0.1-a1ce314d-906f-4497-9713-51c8ad24a242<table><tr><td style="font-weight:bold;vertical-align:top;">comment</td><td style="vertical-align:top;">:</td><td><div></div></td></tr><tr><td style="font-weight:bold;vertical-align:top;">domain</td><td style="vertical-align:top;">:</td><td><div></div></td></tr><tr><td style="font-weight:bold;vertical-align:top;">expires</td><td style="vertical-align:top;">:</td><td><div></div></td></tr><tr><td style="font-weight:bold;vertical-align:top;">httponly</td><td style="vertical-align:top;">:</td><td><div></div></td></tr><tr><td style="font-weight:bold;vertical-align:top;">max-age</td><td style="vertical-align:top;">:</td><td><div></div></td></tr><tr><td style="font-weight:bold;vertical-align:top;">path</td><td style="vertical-align:top;">:</td><td><div></div></td></tr><tr><td style="font-weight:bold;vertical-align:top;">secure</td><td style="vertical-align:top;">:</td><td><div></div></td></tr><tr><td style="font-weight:bold;vertical-align:top;">version</td><td style="vertical-align:top;">:</td><td><div></div></td></tr></table></div></td></tr><tr><td style="font-weight:bold;vertical-align:top;">session_id_seq</td><td style="vertical-align:top;">:</td><td><div>127.0.0.1-84345b6b-3ca8-4744-ba6a-b1e907097cc5<table><tr><td style="font-weight:bold;vertical-align:top;">comment</td><td style="vertical-align:top;">:</td><td><div></div></td></tr><tr><td style="font-weight:bold;vertical-align:top;">domain</td><td style="vertical-align:top;">:</td><td><div></div></td></tr><tr><td style="font-weight:bold;vertical-align:top;">expires</td><td style="vertical-align:top;">:</td><td><div></div></td></tr><tr><td style="font-weight:bold;vertical-align:top;">httponly</td><td style="vertical-align:top;">:</td><td><div></div></td></tr><tr><td style="font-weight:bold;vertical-align:top;">max-age</td><td style="vertical-align:top;">:</td><td><div></div></td></tr><tr><td style="font-weight:bold;vertical-align:top;">path</td><td style="vertical-align:top;">:</td><td><div></div></td></tr><tr><td style="font-weight:bold;vertical-align:top;">secure</td><td style="vertical-align:top;">:</td><td><div></div></td></tr><tr><td style="font-weight:bold;vertical-align:top;">version</td><td style="vertical-align:top;">:</td><td><div></div></td></tr></table></div></td></tr></table></div></td></tr><tr><td style="font-weight:bold;vertical-align:top;">env</td><td style="vertical-align:top;">:</td><td><div><table><tr><td style="font-weight:bold;vertical-align:top;">HTTP_ACCEPT</td><td style="vertical-align:top;">:</td><td><div>text/html,application/xhtml+xml,application/xml;q=0.9,image/webp,*/*;q=0.8</div></td></tr><tr><td style="font-weight:bold;vertical-align:top;">HTTP_ACCEPT_ENCODING</td><td style="vertical-align:top;">:</td><td><div>gzip, deflate, sdch</div></td></tr><tr><td style="font-weight:bold;vertical-align:top;">HTTP_ACCEPT_LANGUAGE</td><td style="vertical-align:top;">:</td><td><div>en-US,en;q=0.8</div></td></tr><tr><td style="font-weight:bold;vertical-align:top;">HTTP_CONNECTION</td><td style="vertical-align:top;">:</td><td><div>keep-alive</div></td></tr><tr><td style="font-weight:bold;vertical-align:top;">HTTP_COOKIE</td><td style="vertical-align:top;">:</td><td><div>_hjUserId=627c5d08-8454-4cbb-b7df-ff3de86c1dcd; session_id_admin=127.0.0.1-a1ce314d-906f-4497-9713-51c8ad24a242; session_id_seq=127.0.0.1-84345b6b-3ca8-4744-ba6a-b1e907097cc5</div></td></tr><tr><td style="font-weight:bold;vertical-align:top;">HTTP_HOST</td><td style="vertical-align:top;">:</td><td><div>localhost:8000</div></td></tr><tr><td style="font-weight:bold;vertical-align:top;">HTTP_REFERER</td><td style="vertical-align:top;">:</td><td><div>http://localhost:8000/seq</div></td></tr><tr><td style="font-weight:bold;vertical-align:top;">HTTP_USER_AGENT</td><td style="vertical-align:top;">:</td><td><div>Mozilla/5.0 (Macintosh; Intel Mac OS X 10_8_5) AppleWebKit/537.36 (KHTML, like Gecko) Chrome/41.0.2272.89 Safari/537.36</div></td></tr><tr><td style="font-weight:bold;vertical-align:top;">PATH_INFO</td><td style="vertical-align:top;">:</td><td><div>/seq/default/view/1</div></td></tr><tr><td style="font-weight:bold;vertical-align:top;">QUERY_STRING</td><td style="vertical-align:top;">:</td><td><div></div></td></tr><tr><td style="font-weight:bold;vertical-align:top;">REMOTE_ADDR</td><td style="vertical-align:top;">:</td><td><div>127.0.0.1</div></td></tr><tr><td style="font-weight:bold;vertical-align:top;">REMOTE_PORT</td><td style="vertical-align:top;">:</td><td><div>57353</div></td></tr><tr><td style="font-weight:bold;vertical-align:top;">REQUEST_METHOD</td><td style="vertical-align:top;">:</td><td><div>GET</div></td></tr><tr><td style="font-weight:bold;vertical-align:top;">SCRIPT_NAME</td><td style="vertical-align:top;">:</td><td><div></div></td></tr><tr><td style="font-weight:bold;vertical-align:top;">SERVER_NAME</td><td style="vertical-align:top;">:</td><td><div>Michaels-MacBook-Air-3.local</div></td></tr><tr><td style="font-weight:bold;vertical-align:top;">SERVER_PORT</td><td style="vertical-align:top;">:</td><td><div>8000</div></td></tr><tr><td style="font-weight:bold;vertical-align:top;">SERVER_PROTOCOL</td><td style="vertical-align:top;">:</td><td><div>HTTP/1.1</div></td></tr><tr><td style="font-weight:bold;vertical-align:top;">SERVER_SOFTWARE</td><td style="vertical-align:top;">:</td><td><div>Rocket 1.2.6</div></td></tr><tr><td style="font-weight:bold;vertical-align:top;">app_folders</td><td style="vertical-align:top;">:</td><td><div>set([&#x27;/Users/mzimmerman/Documents/Shahar/CS183proj/web2py/applications/admin/&#x27;, &#x27;/Users/mzimmerman/Documents/Shahar/CS183proj/web2py/applications/welcome/&#x27;, &#x27;/Users/mzimmerman/Documents/Shahar/CS183proj/web2py/applications/seq/&#x27;])</div></td></tr><tr><td style="font-weight:bold;vertical-align:top;">applications_parent</td><td style="vertical-align:top;">:</td><td><div>/Users/mzimmerman/Documents/Shahar/CS183proj/web2py</div></td></tr><tr><td style="font-weight:bold;vertical-align:top;">cmd_args</td><td style="vertical-align:top;">:</td><td><div><table></table></div></td></tr><tr><td style="font-weight:bold;vertical-align:top;">cmd_options</td><td style="vertical-align:top;">:</td><td><div>&lt;Values at 0x10978de60: {&#x27;verbose&#x27;: False, &#x27;ip&#x27;: &#x27;127.0.0.1&#x27;, &#x27;debuglevel&#x27;: 30, &#x27;with_scheduler&#x27;: False, &#x27;ips&#x27;: [&#x27;10.0.0.14&#x27;, &#x27;fe80::1610:9fff:feec:dff6%en0&#x27;, &#x27;192.168.56.1&#x27;], &#x27;shutdown_timeout&#x27;: 5, &#x27;taskbar&#x27;: False, &#x27;with_coverage&#x27;: False, &#x27;scheduler_groups&#x27;: None, &#x27;port&#x27;: 8000, &#x27;maxthreads&#x27;: None, &#x27;softcron&#x27;: False, &#x27;server_name&#x27;: &#x27;Michaels-MacBook-Air-3.local&#x27;, &#x27;bpython&#x27;: False, &#x27;nogui&#x27;: False, &#x27;pid_filename&#x27;: &#x27;httpserver.pid&#x27;, &#x27;extcron&#x27;: False, &#x27;runcron&#x27;: False, &#x27;run_system_tests&#x27;: False, &#x27;test&#x27;: None, &#x27;folder&#x27;: &#x27;/Users/mzimmerman/Documents/Shahar/CS183proj/web2py&#x27;, &#x27;config&#x27;: &#x27;&#x27;, &#x27;minthreads&#x27;: None, &#x27;shell&#x27;: None, &#x27;run&#x27;: &#x27;&#x27;, &#x27;log_filename&#x27;: &#x27;httpserver.log&#x27;, &#x27;profiler_dir&#x27;: None, &#x27;args&#x27;: [&#x27;&#x27;], &#x27;socket_timeout&#x27;: 5, &#x27;ssl_ca_certificate&#x27;: None, &#x27;scheduler&#x27;: None, &#x27;interfaces&#x27;: None, &#x27;ssl_private_key&#x27;: &#x27;&#x27;, &#x27;gae&#x27;: None, &#x27;password&#x27;: &#x27;&lt;ask&gt;&#x27;, &#x27;request_queue_size&#x27;: 5, &#x27;ssl_certificate&#x27;: &#x27;&#x27;, &#x27;cronjob&#x27;: False, &#x27;numthreads&#x27;: None, &#x27;quiet&#x27;: False, &#x27;import_models&#x27;: False, &#x27;timeout&#x27;: 10, &#x27;plain&#x27;: False, &#x27;nobanner&#x27;: False}&gt;</div></td></tr><tr><td style="font-weight:bold;vertical-align:top;">db_sessions</td><td style="vertical-align:top;">:</td><td><div>set([])</div></td></tr><tr><td style="font-weight:bold;vertical-align:top;">debugging</td><td style="vertical-align:top;">:</td><td><div>False</div></td></tr><tr><td style="font-weight:bold;vertical-align:top;">gluon_parent</td><td style="vertical-align:top;">:</td><td><div>/Users/mzimmerman/Documents/Shahar/CS183proj/web2py</div></td></tr><tr><td style="font-weight:bold;vertical-align:top;">http_accept</td><td style="vertical-align:top;">:</td><td><div>text/html,application/xhtml+xml,application/xml;q=0.9,image/webp,*/*;q=0.8</div></td></tr><tr><td style="font-weight:bold;vertical-align:top;">http_accept_encoding</td><td style="vertical-align:top;">:</td><td><div>gzip, deflate, sdch</div></td></tr><tr><td style="font-weight:bold;vertical-align:top;">http_accept_language</td><td style="vertical-align:top;">:</td><td><div>en-US,en;q=0.8</div></td></tr><tr><td style="font-weight:bold;vertical-align:top;">http_connection</td><td style="vertical-align:top;">:</td><td><div>keep-alive</div></td></tr><tr><td style="font-weight:bold;vertical-align:top;">http_cookie</td><td style="vertical-align:top;">:</td><td><div>_hjUserId=627c5d08-8454-4cbb-b7df-ff3de86c1dcd; session_id_admin=127.0.0.1-a1ce314d-906f-4497-9713-51c8ad24a242; session_id_seq=127.0.0.1-84345b6b-3ca8-4744-ba6a-b1e907097cc5</div></td></tr><tr><td style="font-weight:bold;vertical-align:top;">http_host</td><td style="vertical-align:top;">:</td><td><div>localhost:8000</div></td></tr><tr><td style="font-weight:bold;vertical-align:top;">http_referer</td><td style="vertical-align:top;">:</td><td><div>http://localhost:8000/seq</div></td></tr><tr><td style="font-weight:bold;vertical-align:top;">http_user_agent</td><td style="vertical-align:top;">:</td><td><div>Mozilla/5.0 (Macintosh; Intel Mac OS X 10_8_5) AppleWebKit/537.36 (KHTML, like Gecko) Chrome/41.0.2272.89 Safari/537.36</div></td></tr><tr><td style="font-weight:bold;vertical-align:top;">is_jython</td><td style="vertical-align:top;">:</td><td><div>False</div></td></tr><tr><td style="font-weight:bold;vertical-align:top;">is_pypy</td><td style="vertical-align:top;">:</td><td><div>False</div></td></tr><tr><td style="font-weight:bold;vertical-align:top;">is_source</td><td style="vertical-align:top;">:</td><td><div>True</div></td></tr><tr><td style="font-weight:bold;vertical-align:top;">local_hosts</td><td style="vertical-align:top;">:</td><td><div><table><tr><td><div>10.0.0.14</div></td></tr><tr><td><div>::ffff:127.0.0.1</div></td></tr><tr><td><div>::1</div></td></tr><tr><td><div>fe80::1610:9fff:feec:dff6%en0</div></td></tr><tr><td><div>Michaels-MacBook-Air-3.local</div></td></tr><tr><td><div>127.0.0.1</div></td></tr><tr><td><div>192.168.56.1</div></td></tr></table></div></td></tr><tr><td style="font-weight:bold;vertical-align:top;">path_info</td><td style="vertical-align:top;">:</td><td><div>/seq/default/view/1</div></td></tr><tr><td style="font-weight:bold;vertical-align:top;">query_string</td><td style="vertical-align:top;">:</td><td><div></div></td></tr><tr><td style="font-weight:bold;vertical-align:top;">remote_addr</td><td style="vertical-align:top;">:</td><td><div>127.0.0.1</div></td></tr><tr><td style="font-weight:bold;vertical-align:top;">remote_port</td><td style="vertical-align:top;">:</td><td><div>57353</div></td></tr><tr><td style="font-weight:bold;vertical-align:top;">request_method</td><td style="vertical-align:top;">:</td><td><div>GET</div></td></tr><tr><td style="font-weight:bold;vertical-align:top;">request_uri</td><td style="vertical-align:top;">:</td><td><div>/seq/default/view/1</div></td></tr><tr><td style="font-weight:bold;vertical-align:top;">script_name</td><td style="vertical-align:top;">:</td><td><div></div></td></tr><tr><td style="font-weight:bold;vertical-align:top;">server_name</td><td style="vertical-align:top;">:</td><td><div>Michaels-MacBook-Air-3.local</div></td></tr><tr><td style="font-weight:bold;vertical-align:top;">server_port</td><td style="vertical-align:top;">:</td><td><div>8000</div></td></tr><tr><td style="font-weight:bold;vertical-align:top;">server_protocol</td><td style="vertical-align:top;">:</td><td><div>HTTP/1.1</div></td></tr><tr><td style="font-weight:bold;vertical-align:top;">server_software</td><td style="vertical-align:top;">:</td><td><div>Rocket 1.2.6</div></td></tr><tr><td style="font-weight:bold;vertical-align:top;">web2py_path</td><td style="vertical-align:top;">:</td><td><div>/Users/mzimmerman/Documents/Shahar/CS183proj/web2py</div></td></tr><tr><td style="font-weight:bold;vertical-align:top;">web2py_version</td><td style="vertical-align:top;">:</td><td><div>2.9.11-stable+timestamp.2014.09.15.23.35.11</div></td></tr><tr><td style="font-weight:bold;vertical-align:top;">wsgi.errors</td><td style="vertical-align:top;">:</td><td><div>&lt;open file &#x27;&lt;stderr&gt;&#x27;, mode &#x27;w&#x27; at 0x1087e1270&gt;</div></td></tr><tr><td style="font-weight:bold;vertical-align:top;">wsgi.file_wrapper</td><td style="vertical-align:top;">:</td><td><div>&lt;class wsgiref.util.FileWrapper at 0x1095823f8&gt;</div></td></tr><tr><td style="font-weight:bold;vertical-align:top;">wsgi.input</td><td style="vertical-align:top;">:</td><td><div>&lt;socket._fileobject object at 0x10e266dd0&gt;</div></td></tr><tr><td style="font-weight:bold;vertical-align:top;">wsgi.multiprocess</td><td style="vertical-align:top;">:</td><td><div>False</div></td></tr><tr><td style="font-weight:bold;vertical-align:top;">wsgi.multithread</td><td style="vertical-align:top;">:</td><td><div>True</div></td></tr><tr><td style="font-weight:bold;vertical-align:top;">wsgi.run_once</td><td style="vertical-align:top;">:</td><td><div>False</div></td></tr><tr><td style="font-weight:bold;vertical-align:top;">wsgi.url_scheme</td><td style="vertical-align:top;">:</td><td><div>http</div></td></tr><tr><td style="font-weight:bold;vertical-align:top;">wsgi.version</td><td style="vertical-align:top;">:</td><td><div><table><tr><td><div>1</div></td></tr><tr><td><div>0</div></td></tr></table></div></td></tr><tr><td style="font-weight:bold;vertical-align:top;">wsgi_errors</td><td style="vertical-align:top;">:</td><td><div>&lt;open file &#x27;&lt;stderr&gt;&#x27;, mode &#x27;w&#x27; at 0x1087e1270&gt;</div></td></tr><tr><td style="font-weight:bold;vertical-align:top;">wsgi_file_wrapper</td><td style="vertical-align:top;">:</td><td><div>&lt;class wsgiref.util.FileWrapper at 0x1095823f8&gt;</div></td></tr><tr><td style="font-weight:bold;vertical-align:top;">wsgi_input</td><td style="vertical-align:top;">:</td><td><div>&lt;socket._fileobject object at 0x10e266dd0&gt;</div></td></tr><tr><td style="font-weight:bold;vertical-align:top;">wsgi_multiprocess</td><td style="vertical-align:top;">:</td><td><div>False</div></td></tr><tr><td style="font-weight:bold;vertical-align:top;">wsgi_multithread</td><td style="vertical-align:top;">:</td><td><div>True</div></td></tr><tr><td style="font-weight:bold;vertical-align:top;">wsgi_run_once</td><td style="vertical-align:top;">:</td><td><div>False</div></td></tr><tr><td style="font-weight:bold;vertical-align:top;">wsgi_url_scheme</td><td style="vertical-align:top;">:</td><td><div>http</div></td></tr><tr><td style="font-weight:bold;vertical-align:top;">wsgi_version</td><td style="vertical-align:top;">:</td><td><div><table><tr><td><div>1</div></td></tr><tr><td><div>0</div></td></tr></table></div></td></tr></table></div></td></tr><tr><td style="font-weight:bold;vertical-align:top;">extension</td><td style="vertical-align:top;">:</td><td><div>html</div></td></tr><tr><td style="font-weight:bold;vertical-align:top;">folder</td><td style="vertical-align:top;">:</td><td><div>/Users/mzimmerman/Documents/Shahar/CS183proj/web2py/applications/seq/</div></td></tr><tr><td style="font-weight:bold;vertical-align:top;">function</td><td style="vertical-align:top;">:</td><td><div>view</div></td></tr><tr><td style="font-weight:bold;vertical-align:top;">global_settings</td><td style="vertical-align:top;">:</td><td><div><table><tr><td style="font-weight:bold;vertical-align:top;">app_folders</td><td style="vertical-align:top;">:</td><td><div>set([&#x27;/Users/mzimmerman/Documents/Shahar/CS183proj/web2py/applications/admin/&#x27;, &#x27;/Users/mzimmerman/Documents/Shahar/CS183proj/web2py/applications/welcome/&#x27;, &#x27;/Users/mzimmerman/Documents/Shahar/CS183proj/web2py/applications/seq/&#x27;])</div></td></tr><tr><td style="font-weight:bold;vertical-align:top;">applications_parent</td><td style="vertical-align:top;">:</td><td><div>/Users/mzimmerman/Documents/Shahar/CS183proj/web2py</div></td></tr><tr><td style="font-weight:bold;vertical-align:top;">cmd_args</td><td style="vertical-align:top;">:</td><td><div><table></table></div></td></tr><tr><td style="font-weight:bold;vertical-align:top;">cmd_options</td><td style="vertical-align:top;">:</td><td><div>&lt;Values at 0x10978de60: {&#x27;verbose&#x27;: False, &#x27;ip&#x27;: &#x27;127.0.0.1&#x27;, &#x27;debuglevel&#x27;: 30, &#x27;with_scheduler&#x27;: False, &#x27;ips&#x27;: [&#x27;10.0.0.14&#x27;, &#x27;fe80::1610:9fff:feec:dff6%en0&#x27;, &#x27;192.168.56.1&#x27;], &#x27;shutdown_timeout&#x27;: 5, &#x27;taskbar&#x27;: False, &#x27;with_coverage&#x27;: False, &#x27;scheduler_groups&#x27;: None, &#x27;port&#x27;: 8000, &#x27;maxthreads&#x27;: None, &#x27;softcron&#x27;: False, &#x27;server_name&#x27;: &#x27;Michaels-MacBook-Air-3.local&#x27;, &#x27;bpython&#x27;: False, &#x27;nogui&#x27;: False, &#x27;pid_filename&#x27;: &#x27;httpserver.pid&#x27;, &#x27;extcron&#x27;: False, &#x27;runcron&#x27;: False, &#x27;run_system_tests&#x27;: False, &#x27;test&#x27;: None, &#x27;folder&#x27;: &#x27;/Users/mzimmerman/Documents/Shahar/CS183proj/web2py&#x27;, &#x27;config&#x27;: &#x27;&#x27;, &#x27;minthreads&#x27;: None, &#x27;shell&#x27;: None, &#x27;run&#x27;: &#x27;&#x27;, &#x27;log_filename&#x27;: &#x27;httpserver.log&#x27;, &#x27;profiler_dir&#x27;: None, &#x27;args&#x27;: [&#x27;&#x27;], &#x27;socket_timeout&#x27;: 5, &#x27;ssl_ca_certificate&#x27;: None, &#x27;scheduler&#x27;: None, &#x27;interfaces&#x27;: None, &#x27;ssl_private_key&#x27;: &#x27;&#x27;, &#x27;gae&#x27;: None, &#x27;password&#x27;: &#x27;&lt;ask&gt;&#x27;, &#x27;request_queue_size&#x27;: 5, &#x27;ssl_certificate&#x27;: &#x27;&#x27;, &#x27;cronjob&#x27;: False, &#x27;numthreads&#x27;: None, &#x27;quiet&#x27;: False, &#x27;import_models&#x27;: False, &#x27;timeout&#x27;: 10, &#x27;plain&#x27;: False, &#x27;nobanner&#x27;: False}&gt;</div></td></tr><tr><td style="font-weight:bold;vertical-align:top;">db_sessions</td><td style="vertical-align:top;">:</td><td><div>set([])</div></td></tr><tr><td style="font-weight:bold;vertical-align:top;">debugging</td><td style="vertical-align:top;">:</td><td><div>False</div></td></tr><tr><td style="font-weight:bold;vertical-align:top;">gluon_parent</td><td style="vertical-align:top;">:</td><td><div>/Users/mzimmerman/Documents/Shahar/CS183proj/web2py</div></td></tr><tr><td style="font-weight:bold;vertical-align:top;">is_jython</td><td style="vertical-align:top;">:</td><td><div>False</div></td></tr><tr><td style="font-weight:bold;vertical-align:top;">is_pypy</td><td style="vertical-align:top;">:</td><td><div>False</div></td></tr><tr><td style="font-weight:bold;vertical-align:top;">is_source</td><td style="vertical-align:top;">:</td><td><div>True</div></td></tr><tr><td style="font-weight:bold;vertical-align:top;">local_hosts</td><td style="vertical-align:top;">:</td><td><div><table><tr><td><div>10.0.0.14</div></td></tr><tr><td><div>::ffff:127.0.0.1</div></td></tr><tr><td><div>::1</div></td></tr><tr><td><div>fe80::1610:9fff:feec:dff6%en0</div></td></tr><tr><td><div>Michaels-MacBook-Air-3.local</div></td></tr><tr><td><div>127.0.0.1</div></td></tr><tr><td><div>192.168.56.1</div></td></tr></table></div></td></tr><tr><td style="font-weight:bold;vertical-align:top;">web2py_version</td><td style="vertical-align:top;">:</td><td><div>2.9.11-stable+timestamp.2014.09.15.23.35.11</div></td></tr></table></div></td></tr><tr><td style="font-weight:bold;vertical-align:top;">is_https</td><td style="vertical-align:top;">:</td><td><div>False</div></td></tr><tr><td style="font-weight:bold;vertical-align:top;">is_local</td><td style="vertical-align:top;">:</td><td><div>True</div></td></tr><tr><td style="font-weight:bold;vertical-align:top;">is_restful</td><td style="vertical-align:top;">:</td><td><div>False</div></td></tr><tr><td style="font-weight:bold;vertical-align:top;">is_sheduler</td><td style="vertical-align:top;">:</td><td><div>None</div></td></tr><tr><td style="font-weight:bold;vertical-align:top;">is_shell</td><td style="vertical-align:top;">:</td><td><div>None</div></td></tr><tr><td style="font-weight:bold;vertical-align:top;">now</td><td style="vertical-align:top;">:</td><td><div>datetime.datetime(2015, 3, 12, 1, 15, 18, 363489)</div></td></tr><tr><td style="font-weight:bold;vertical-align:top;">raw_args</td><td style="vertical-align:top;">:</td><td><div>1</div></td></tr><tr><td style="font-weight:bold;vertical-align:top;">raw_extension</td><td style="vertical-align:top;">:</td><td><div>None</div></td></tr><tr><td style="font-weight:bold;vertical-align:top;">url</td><td style="vertical-align:top;">:</td><td><div>/seq/default/view/1</div></td></tr><tr><td style="font-weight:bold;vertical-align:top;">utcnow</td><td style="vertical-align:top;">:</td><td><div>datetime.datetime(2015, 3, 12, 8, 15, 18, 363783)</div></td></tr><tr><td style="font-weight:bold;vertical-align:top;">uuid</td><td style="vertical-align:top;">:</td><td><div>seq/127.0.0.1.2015-03-12.01-15-18.10739ddd-e0af-4cc9-b6a0-542a6ad36f6a</div></td></tr><tr><td style="font-weight:bold;vertical-align:top;">wsgi</td><td style="vertical-align:top;">:</td><td><div>&lt;gluon.main.LazyWSGI object at 0x10e232690&gt;</div></td></tr></table></div>'
tRp58
sS'frames'
p59
(lp60
(dp61
S'file'
p62
S'/Users/mzimmerman/Documents/Shahar/CS183proj/web2py/gluon/restricted.py'
p63
sS'dump'
p64
(dp65
S'environment'
p66
S"{'A': <class 'gluon.html.A'>, 'ANY_OF': <class 'gluon.validators.ANY_OF'>, 'ASSIGNJS': <function ASSIGNJS>, 'Auth': <class 'gluon.tools.Auth'>, 'B': <class 'gluon.html.B'>, 'BEAUTIFY': <class 'gluon.html.BEAUTIFY'>, 'BODY': <class 'gluon.html.BODY'>, 'BR': <class 'gluon.html.BR'>, 'BUTTON': <class 'gluon.html.BUTTON'>, 'CAT': <class 'gluon.html.CAT'>, ...}"
p67
sS'ccode'
p68
S'<code object <module> at 0x1119df5b0, file "/Use...pplications/seq/controllers/default.py", line 12>'
p69
ssS'lnum'
p70
I224
sS'lines'
p71
(dp72
I224
S'        exec ccode in environment'
p73
sI225
S'    except HTTP:'
p74
sI226
S'        raise'
p75
sI227
S'    except RestrictedError:'
p76
sI228
S'        # do not encapsulate (obfuscate) the original RestrictedError'
p77
sI219
S'    try:'
p78
sI220
S'        if isinstance(code, types.CodeType):'
p79
sI221
S'            ccode = code'
p80
sI222
S'        else:'
p81
sI223
S'            ccode = compile2(code, layer)'
p82
ssS'call'
p83
S"(code='# -*- coding: utf-8 -*-\\n# this file is released ...se,rules)\\n\\nresponse._vars=response._caller(view)\\n', environment={'A': <class 'gluon.html.A'>, 'ANY_OF': <class 'gluon.validators.ANY_OF'>, 'ASSIGNJS': <function ASSIGNJS>, 'Auth': <class 'gluon.tools.Auth'>, 'B': <class 'gluon.html.B'>, 'BEAUTIFY': <class 'gluon.html.BEAUTIFY'>, 'BODY': <class 'gluon.html.BODY'>, 'BR': <class 'gluon.html.BR'>, 'BUTTON': <class 'gluon.html.BUTTON'>, 'CAT': <class 'gluon.html.CAT'>, ...}, layer='/Users/mzimmerman/Documents/Shahar/CS183proj/web2py/applications/seq/controllers/default.py')"
p84
sS'func'
p85
S'restricted'
p86
sa(dp87
g62
S'/Users/mzimmerman/Documents/Shahar/CS183proj/web2py/applications/seq/controllers/default.py'
p88
sg64
(dp89
sg70
I271
sg71
(dp90
I260
S'def api():'
p91
sI261
S'    """'
p92
sI262
S'    this is example of API with access control'
p93
sI263
S'    WEB2PY provides Hypermedia API (Collection+JSON) Experimental'
p94
sI264
S'    """'
p95
sI265
S'    from gluon.contrib.hypermedia import Collection'
p96
sI266
S'    rules = {'
p97
sI267
S"        '<tablename>': {'GET':{},'POST':{},'PUT':{},'DELETE':{}},"
p98
sI268
S'        }'
p99
sI269
S'    return Collection(db).process(request,response,rules)'
p100
ssg83
S'()'
p101
sg85
S'<module>'
p102
sa(dp103
g62
S'/Users/mzimmerman/Documents/Shahar/CS183proj/web2py/gluon/globals.py'
p104
sg64
(dp105
S'self'
p106
S'undefined'
p107
sS'f'
S'<function view>'
p108
ssg70
I392
sg71
(dp109
I387
S"        self.flash = ''            # used by the default view layout"
p110
sI388
S'        self.meta = Storage()      # used by web2py_ajax.html'
p111
sI389
S'        self.menu = []             # used by the default view layout'
p112
sI390
S'        self.files = []            # used by web2py_ajax.html'
p113
sI391
S'        self._vars = None'
p114
sI392
S'        self._caller = lambda f: f()'
p115
sI393
S'        self._view_environment = None'
p116
sI394
S'        self._custom_commit = None'
p117
sI395
S'        self._custom_rollback = None'
p118
sI396
S"        self.generic_patterns = ['*']"
p119
ssg83
S'(f=<function view>)'
p120
sg85
S'<lambda>'
p121
sa(dp122
g62
S'/Users/mzimmerman/Documents/Shahar/CS183proj/web2py/applications/seq/controllers/default.py'
p123
sg64
(dp124
S'fields'
p125
g107
sS'db.sequences.id'
p126
S'<gluon.dal.Field object>'
p127
sS'seq_id'
p128
S'1L'
p129
sS'global SQLFORM'
p130
S"<class 'gluon.sqlhtml.SQLFORM'>"
p131
sS'global db'
p132
S'<DAL uri="sqlite://storage.sqlite">'
p133
sS'sql_form'
p134
g107
sS'db.sequences'
p135
S'<Table sequences (id,seq,seq_file_name,seq_file_type)>'
p136
ssg70
I109
sg71
(dp137
I104
S'   desc_name = desc_row.sequence_name'
p138
sI105
S'   desc_description = desc_row.sequence_description'
p139
sI106
S'   date_created = desc_row.date_created'
p140
sI107
S'   seq_id = desc_row.seq_id'
p141
sI108
S''
sI109
S"   sql_form = SQLFORM(db.sequences, db.sequences.id == seq_id, fields=['seq_file_name'])"
p142
sI110
S''
sI111
S'   list_of_suscriptors = db((db.descriptor_to_user.descriptor_id == desc_id) & (db.descriptor_to_user.user_id == db.auth_user.id)).select(db.auth_user.first_name, db.auth_user.last_name, db.auth_user.email)'
p143
sI112
S''
sI113
S'   sequence_row = db(db.sequences.id == seq_id).select().first()'
p144
ssg83
S'()'
p145
sg85
S'view'
p146
sa(dp147
g62
S'/Users/mzimmerman/Documents/Shahar/CS183proj/web2py/gluon/sqlhtml.py'
p148
sg64
(dp149
S'field.readable'
p150
S'True'
p151
sS'field'
p152
S'<gluon.dal.Field object>'
p153
sS'showid'
p154
g151
sS'field.name'
p155
S"'id'"
p156
sS'record'
p157
S'<Query (sequences.id = 1)>'
p158
ssg70
I1163
sg71
(dp159
I1158
S''
sI1159
S'                # store the id field name (for legacy databases)'
p160
sI1160
S'                self.id_field_name = field.name'
p161
sI1161
S''
sI1162
S'                if record:'
p162
sI1163
S'                    if showid and field.name in record and field.readable:'
p163
sI1164
S'                        v = record[field.name]'
p164
sI1165
S'                        widget = SPAN(v, _id=field_id)'
p165
sI1166
S'                        self.custom.dspval.id = str(v)'
p166
sI1167
S'                        xfields.append((row_id, label, widget, comment))'
p167
ssg83
S"(self=<gluon.sqlhtml.SQLFORM object>, table=<Table sequences (id,seq,seq_file_name,seq_file_type)>, record=<Query (sequences.id = 1)>, deletable=False, linkto=None, upload=None, fields=['id', 'seq_file_name'], labels=None, col3={}, submit_button='Submit', delete_label='Check to delete', showid=True, readonly=False, comments=True, keepopts=[], ignore_rw=False, record_id=None, formstyle=None, buttons=['submit'], separator=None, extra_fields=[], **attributes={})"
p168
sg85
g50
sasS'pyver'
p169
S'Python 2.7.2: /usr/bin/python (prefix: /System/Library/Frameworks/Python.framework/Versions/2.7)'
p170
sS'session'
p171
g57
(S's\x82\t\x00\x00<div><table><tr><td style="font-weight:bold;vertical-align:top;">auth</td><td style="vertical-align:top;">:</td><td><div><table><tr><td style="font-weight:bold;vertical-align:top;">expiration</td><td style="vertical-align:top;">:</td><td><div>3600</div></td></tr><tr><td style="font-weight:bold;vertical-align:top;">hmac_key</td><td style="vertical-align:top;">:</td><td><div>10e828ea-1c1d-4fb4-9e86-640a90409220</div></td></tr><tr><td style="font-weight:bold;vertical-align:top;">last_visit</td><td style="vertical-align:top;">:</td><td><div>datetime.datetime(2015, 3, 12, 1, 15, 16, 87789)</div></td></tr><tr><td style="font-weight:bold;vertical-align:top;">user</td><td style="vertical-align:top;">:</td><td><div><table><tr><td style="font-weight:bold;vertical-align:top;">email</td><td style="vertical-align:top;">:</td><td><div>szimmer1@ucsc.edu</div></td></tr><tr><td style="font-weight:bold;vertical-align:top;">first_name</td><td style="vertical-align:top;">:</td><td><div>Shahar</div></td></tr><tr><td style="font-weight:bold;vertical-align:top;">id</td><td style="vertical-align:top;">:</td><td><div>1L</div></td></tr><tr><td style="font-weight:bold;vertical-align:top;">last_name</td><td style="vertical-align:top;">:</td><td><div>Zimmerman</div></td></tr><tr><td style="font-weight:bold;vertical-align:top;">registration_id</td><td style="vertical-align:top;">:</td><td><div></div></td></tr><tr><td style="font-weight:bold;vertical-align:top;">registration_key</td><td style="vertical-align:top;">:</td><td><div></div></td></tr><tr><td style="font-weight:bold;vertical-align:top;">reset_password_key</td><td style="vertical-align:top;">:</td><td><div></div></td></tr></table></div></td></tr><tr><td style="font-weight:bold;vertical-align:top;">user_groups</td><td style="vertical-align:top;">:</td><td><div><table><tr><td style="font-weight:bold;vertical-align:top;">1</td><td style="vertical-align:top;">:</td><td><div>user_1</div></td></tr></table></div></td></tr></table></div></td></tr><tr><td style="font-weight:bold;vertical-align:top;">flash</td><td style="vertical-align:top;">:</td><td><div>None</div></td></tr><tr><td style="font-weight:bold;vertical-align:top;">last_orderby</td><td style="vertical-align:top;">:</td><td><div>None</div></td></tr><tr><td style="font-weight:bold;vertical-align:top;">last_query</td><td style="vertical-align:top;">:</td><td><div>db.auth_user.id&gt;0</div></td></tr></table></div>'
tRp172
sS'etype'
p173
S"<type 'exceptions.TypeError'>"
p174
sS'date'
p175
S'Thu Mar 12 01:15:18 2015'
p176
sS'response'
p177
g57
(S'sG\x1c\x00\x00<div><table><tr><td style="font-weight:bold;vertical-align:top;">body</td><td style="vertical-align:top;">:</td><td><div>&lt;cStringIO.StringO object at 0x1118041b8&gt;</div></td></tr><tr><td style="font-weight:bold;vertical-align:top;">cookies</td><td style="vertical-align:top;">:</td><td><div><table><tr><td style="font-weight:bold;vertical-align:top;">session_id_seq</td><td style="vertical-align:top;">:</td><td><div>127.0.0.1-84345b6b-3ca8-4744-ba6a-b1e907097cc5<table><tr><td style="font-weight:bold;vertical-align:top;">comment</td><td style="vertical-align:top;">:</td><td><div></div></td></tr><tr><td style="font-weight:bold;vertical-align:top;">domain</td><td style="vertical-align:top;">:</td><td><div></div></td></tr><tr><td style="font-weight:bold;vertical-align:top;">expires</td><td style="vertical-align:top;">:</td><td><div></div></td></tr><tr><td style="font-weight:bold;vertical-align:top;">httponly</td><td style="vertical-align:top;">:</td><td><div></div></td></tr><tr><td style="font-weight:bold;vertical-align:top;">max-age</td><td style="vertical-align:top;">:</td><td><div></div></td></tr><tr><td style="font-weight:bold;vertical-align:top;">path</td><td style="vertical-align:top;">:</td><td><div>/</div></td></tr><tr><td style="font-weight:bold;vertical-align:top;">secure</td><td style="vertical-align:top;">:</td><td><div></div></td></tr><tr><td style="font-weight:bold;vertical-align:top;">version</td><td style="vertical-align:top;">:</td><td><div></div></td></tr></table></div></td></tr></table></div></td></tr><tr><td style="font-weight:bold;vertical-align:top;">delimiters</td><td style="vertical-align:top;">:</td><td><div><table><tr><td><div>{{</div></td></tr><tr><td><div>}}</div></td></tr></table></div></td></tr><tr><td style="font-weight:bold;vertical-align:top;">files</td><td style="vertical-align:top;">:</td><td><div><table></table></div></td></tr><tr><td style="font-weight:bold;vertical-align:top;">flash</td><td style="vertical-align:top;">:</td><td><div></div></td></tr><tr><td style="font-weight:bold;vertical-align:top;">form_label_separator</td><td style="vertical-align:top;">:</td><td><div>: </div></td></tr><tr><td style="font-weight:bold;vertical-align:top;">formstyle</td><td style="vertical-align:top;">:</td><td><div>table3cols</div></td></tr><tr><td style="font-weight:bold;vertical-align:top;">generic_patterns</td><td style="vertical-align:top;">:</td><td><div><table><tr><td><div>*</div></td></tr></table></div></td></tr><tr><td style="font-weight:bold;vertical-align:top;">google_analytics_id</td><td style="vertical-align:top;">:</td><td><div>None</div></td></tr><tr><td style="font-weight:bold;vertical-align:top;">headers</td><td style="vertical-align:top;">:</td><td><div><table><tr><td style="font-weight:bold;vertical-align:top;">X-Powered-By</td><td style="vertical-align:top;">:</td><td><div>web2py</div></td></tr></table></div></td></tr><tr><td style="font-weight:bold;vertical-align:top;">logo</td><td style="vertical-align:top;">:</td><td><div><a class="brand" href="http://www.web2py.com/"><b>web<span>2</span>py</b>&trade;&nbsp;</a></div></td></tr><tr><td style="font-weight:bold;vertical-align:top;">menu</td><td style="vertical-align:top;">:</td><td><div><table></table></div></td></tr><tr><td style="font-weight:bold;vertical-align:top;">meta</td><td style="vertical-align:top;">:</td><td><div><table><tr><td style="font-weight:bold;vertical-align:top;">author</td><td style="vertical-align:top;">:</td><td><div>Your Name &lt;you@example.com&gt;</div></td></tr><tr><td style="font-weight:bold;vertical-align:top;">generator</td><td style="vertical-align:top;">:</td><td><div>Web2py Web Framework</div></td></tr><tr><td style="font-weight:bold;vertical-align:top;">keywords</td><td style="vertical-align:top;">:</td><td><div>web2py, python, framework</div></td></tr></table></div></td></tr><tr><td style="font-weight:bold;vertical-align:top;">models_to_run</td><td style="vertical-align:top;">:</td><td><div><table><tr><td><div>^\\w+\\.py$</div></td></tr><tr><td><div>^default/\\w+\\.py$</div></td></tr><tr><td><div>^default/view/\\w+\\.py$</div></td></tr></table></div></td></tr><tr><td style="font-weight:bold;vertical-align:top;">postprocessing</td><td style="vertical-align:top;">:</td><td><div><table></table></div></td></tr><tr><td style="font-weight:bold;vertical-align:top;">session_client</td><td style="vertical-align:top;">:</td><td><div>127.0.0.1</div></td></tr><tr><td style="font-weight:bold;vertical-align:top;">session_cookie_compression_level</td><td style="vertical-align:top;">:</td><td><div>None</div></td></tr><tr><td style="font-weight:bold;vertical-align:top;">session_cookie_expires</td><td style="vertical-align:top;">:</td><td><div>None</div></td></tr><tr><td style="font-weight:bold;vertical-align:top;">session_cookie_key</td><td style="vertical-align:top;">:</td><td><div>None</div></td></tr><tr><td style="font-weight:bold;vertical-align:top;">session_data_name</td><td style="vertical-align:top;">:</td><td><div>session_data_seq</div></td></tr><tr><td style="font-weight:bold;vertical-align:top;">session_file</td><td style="vertical-align:top;">:</td><td><div>&lt;open file &#x27;/Users/mzimmerman/Documents/Shahar/CS183proj/web2py/applications/seq/sessions/0fa/018/127.0.0.1-84345b6b-3ca8-4744-ba6a-b1e907097cc5&#x27;, mode &#x27;rb+&#x27; at 0x109b1d540&gt;</div></td></tr><tr><td style="font-weight:bold;vertical-align:top;">session_filename</td><td style="vertical-align:top;">:</td><td><div>/Users/mzimmerman/Documents/Shahar/CS183proj/web2py/applications/seq/sessions/127.0.0.1-84345b6b-3ca8-4744-ba6a-b1e907097cc5</div></td></tr><tr><td style="font-weight:bold;vertical-align:top;">session_hash</td><td style="vertical-align:top;">:</td><td><div>4397374662d31c21aac3f364d12525e1</div></td></tr><tr><td style="font-weight:bold;vertical-align:top;">session_id</td><td style="vertical-align:top;">:</td><td><div>127.0.0.1-84345b6b-3ca8-4744-ba6a-b1e907097cc5</div></td></tr><tr><td style="font-weight:bold;vertical-align:top;">session_id_name</td><td style="vertical-align:top;">:</td><td><div>session_id_seq</div></td></tr><tr><td style="font-weight:bold;vertical-align:top;">session_locked</td><td style="vertical-align:top;">:</td><td><div>True</div></td></tr><tr><td style="font-weight:bold;vertical-align:top;">session_masterapp</td><td style="vertical-align:top;">:</td><td><div>seq</div></td></tr><tr><td style="font-weight:bold;vertical-align:top;">session_new</td><td style="vertical-align:top;">:</td><td><div>False</div></td></tr><tr><td style="font-weight:bold;vertical-align:top;">session_storage_type</td><td style="vertical-align:top;">:</td><td><div>file</div></td></tr><tr><td style="font-weight:bold;vertical-align:top;">status</td><td style="vertical-align:top;">:</td><td><div>200</div></td></tr><tr><td style="font-weight:bold;vertical-align:top;">subtitle</td><td style="vertical-align:top;">:</td><td><div></div></td></tr><tr><td style="font-weight:bold;vertical-align:top;">title</td><td style="vertical-align:top;">:</td><td><div>Seq</div></td></tr><tr><td style="font-weight:bold;vertical-align:top;">view</td><td style="vertical-align:top;">:</td><td><div>default/view.html</div></td></tr></table></div>'
tRp178
sS'locals'
p179
(dp180
S'comment'
p181
S"''"
p182
sS'showid'
p183
g151
sS'sep'
p184
S"': '"
p185
sS'labels'
p186
S'None'
p187
sS'delete_label'
p188
S"'Check to delete'"
p189
sS'nbsp'
p190
S'<gluon.html.XML object>'
p191
sS'submit_button'
p192
S"'Submit'"
p193
sS'table'
p194
S'<Table sequences (id,seq,seq_file_name,seq_file_type)>'
p195
sS'xfields'
p196
S'[]'
p197
sS'field'
p198
S'<gluon.dal.Field object>'
p199
sS'extra_fields'
p200
S'[]'
p201
sS'comments'
p202
g151
sS'label'
p203
S'<gluon.html.LABEL object>'
p204
sS'buttons'
p205
S"['submit']"
p206
sS'ignore_rw'
p207
S'False'
p208
sS'readonly'
p209
g208
sS'record_id'
p210
S'None'
p211
sS'separator'
p212
S'None'
p213
sS'formstyle'
p214
S'None'
p215
sS'widget'
p216
S"''"
p217
sS'ofields'
p218
S"['id', 'seq_file_name']"
p219
sS'field_id'
p220
S"'sequences_id'"
p221
sS'col3'
p222
g45
sS'T'
S'<gluon.languages.translator object>'
p223
sS'linkto'
p224
S'None'
p225
sS'fields'
p226
S"['id', 'seq_file_name']"
p227
sS'upload'
p228
S'None'
p229
sS'keyed'
p230
g208
sS'record'
p231
S'<Query (sequences.id = 1)>'
p232
sS'fieldname'
p233
S"'id'"
p234
sS'keepopts'
p235
S'[]'
p236
sS'attributes'
p237
g45
sS'row_id'
p238
S"'sequences_id__row'"
p239
sS'self'
p240
S'<gluon.sqlhtml.SQLFORM object>'
p241
sS'deletable'
p242
g208
sssS'traceback'
p243
S'Traceback (most recent call last):\n  File "/Users/mzimmerman/Documents/Shahar/CS183proj/web2py/gluon/restricted.py", line 224, in restricted\n    exec ccode in environment\n  File "/Users/mzimmerman/Documents/Shahar/CS183proj/web2py/applications/seq/controllers/default.py", line 271, in <module>\n  File "/Users/mzimmerman/Documents/Shahar/CS183proj/web2py/gluon/globals.py", line 392, in <lambda>\n    self._caller = lambda f: f()\n  File "/Users/mzimmerman/Documents/Shahar/CS183proj/web2py/applications/seq/controllers/default.py", line 109, in view\n    sql_form = SQLFORM(db.sequences, db.sequences.id == seq_id, fields=[\'seq_file_name\'])\n  File "/Users/mzimmerman/Documents/Shahar/CS183proj/web2py/gluon/sqlhtml.py", line 1163, in __init__\n    if showid and field.name in record and field.readable:\nTypeError: argument of type \'Query\' is not iterable\n'
p244
s.